
user/_cat:     file format elf32-i386


Disassembly of section .text:

00000000 <main>:
  }
}

int
main(int argc, char *argv[])
{
   0:	8d 4c 24 04          	lea    0x4(%esp),%ecx
   4:	83 e4 f0             	and    $0xfffffff0,%esp
   7:	ff 71 fc             	push   -0x4(%ecx)
   a:	55                   	push   %ebp
   b:	89 e5                	mov    %esp,%ebp
   d:	57                   	push   %edi
   e:	56                   	push   %esi
   f:	be 01 00 00 00       	mov    $0x1,%esi
  14:	53                   	push   %ebx
  15:	51                   	push   %ecx
  16:	83 ec 18             	sub    $0x18,%esp
  19:	8b 01                	mov    (%ecx),%eax
  1b:	8b 59 04             	mov    0x4(%ecx),%ebx
  1e:	89 45 e4             	mov    %eax,-0x1c(%ebp)
  21:	83 c3 04             	add    $0x4,%ebx
  int fd, i;

  if(argc <= 1){
  24:	83 f8 01             	cmp    $0x1,%eax
  27:	7e 54                	jle    7d <main+0x7d>
  29:	8d b4 26 00 00 00 00 	lea    0x0(%esi,%eiz,1),%esi
    cat(0);
    exit();
  }

  for(i = 1; i < argc; i++){
    if((fd = open(argv[i], 0)) < 0){
  30:	83 ec 08             	sub    $0x8,%esp
  33:	6a 00                	push   $0x0
  35:	ff 33                	push   (%ebx)
  37:	e8 67 03 00 00       	call   3a3 <open>
  3c:	83 c4 10             	add    $0x10,%esp
  3f:	89 c7                	mov    %eax,%edi
  41:	85 c0                	test   %eax,%eax
  43:	78 24                	js     69 <main+0x69>
      fprintf(2, "cat: cannot open %s\n", argv[i]);
      exit();
    }
    cat(fd);
  45:	83 ec 0c             	sub    $0xc,%esp
  for(i = 1; i < argc; i++){
  48:	83 c6 01             	add    $0x1,%esi
  4b:	83 c3 04             	add    $0x4,%ebx
    cat(fd);
  4e:	50                   	push   %eax
  4f:	e8 3c 00 00 00       	call   90 <cat>
    close(fd);
  54:	89 3c 24             	mov    %edi,(%esp)
  57:	e8 2f 03 00 00       	call   38b <close>
  for(i = 1; i < argc; i++){
  5c:	83 c4 10             	add    $0x10,%esp
  5f:	39 75 e4             	cmp    %esi,-0x1c(%ebp)
  62:	75 cc                	jne    30 <main+0x30>
  }
  exit();
  64:	e8 fa 02 00 00       	call   363 <exit>
      fprintf(2, "cat: cannot open %s\n", argv[i]);
  69:	50                   	push   %eax
  6a:	ff 33                	push   (%ebx)
  6c:	68 cb 08 00 00       	push   $0x8cb
  71:	6a 02                	push   $0x2
  73:	e8 68 06 00 00       	call   6e0 <fprintf>
      exit();
  78:	e8 e6 02 00 00       	call   363 <exit>
    cat(0);
  7d:	83 ec 0c             	sub    $0xc,%esp
  80:	6a 00                	push   $0x0
  82:	e8 09 00 00 00       	call   90 <cat>
    exit();
  87:	e8 d7 02 00 00       	call   363 <exit>
  8c:	66 90                	xchg   %ax,%ax
  8e:	66 90                	xchg   %ax,%ax

00000090 <cat>:
{
  90:	55                   	push   %ebp
  91:	89 e5                	mov    %esp,%ebp
  93:	56                   	push   %esi
  94:	8b 75 08             	mov    0x8(%ebp),%esi
  97:	53                   	push   %ebx
  while((n = read(fd, buf, sizeof(buf))) > 0) {
  98:	eb 1d                	jmp    b7 <cat+0x27>
  9a:	8d b6 00 00 00 00    	lea    0x0(%esi),%esi
    if (write(1, buf, n) != n) {
  a0:	83 ec 04             	sub    $0x4,%esp
  a3:	53                   	push   %ebx
  a4:	68 60 09 00 00       	push   $0x960
  a9:	6a 01                	push   $0x1
  ab:	e8 d3 02 00 00       	call   383 <write>
  b0:	83 c4 10             	add    $0x10,%esp
  b3:	39 d8                	cmp    %ebx,%eax
  b5:	75 25                	jne    dc <cat+0x4c>
  while((n = read(fd, buf, sizeof(buf))) > 0) {
  b7:	83 ec 04             	sub    $0x4,%esp
  ba:	68 00 02 00 00       	push   $0x200
  bf:	68 60 09 00 00       	push   $0x960
  c4:	56                   	push   %esi
  c5:	e8 b1 02 00 00       	call   37b <read>
  ca:	83 c4 10             	add    $0x10,%esp
  cd:	89 c3                	mov    %eax,%ebx
  cf:	85 c0                	test   %eax,%eax
  d1:	7f cd                	jg     a0 <cat+0x10>
  if(n < 0){
  d3:	75 1b                	jne    f0 <cat+0x60>
}
  d5:	8d 65 f8             	lea    -0x8(%ebp),%esp
  d8:	5b                   	pop    %ebx
  d9:	5e                   	pop    %esi
  da:	5d                   	pop    %ebp
  db:	c3                   	ret    
      fprintf(2, "cat: write error\n");
  dc:	83 ec 08             	sub    $0x8,%esp
  df:	68 a8 08 00 00       	push   $0x8a8
  e4:	6a 02                	push   $0x2
  e6:	e8 f5 05 00 00       	call   6e0 <fprintf>
      exit();
  eb:	e8 73 02 00 00       	call   363 <exit>
    fprintf(2, "cat: read error\n");
  f0:	50                   	push   %eax
  f1:	50                   	push   %eax
  f2:	68 ba 08 00 00       	push   $0x8ba
  f7:	6a 02                	push   $0x2
  f9:	e8 e2 05 00 00       	call   6e0 <fprintf>
    exit();
  fe:	e8 60 02 00 00       	call   363 <exit>
 103:	66 90                	xchg   %ax,%ax
 105:	66 90                	xchg   %ax,%ax
 107:	66 90                	xchg   %ax,%ax
 109:	66 90                	xchg   %ax,%ax
 10b:	66 90                	xchg   %ax,%ax
 10d:	66 90                	xchg   %ax,%ax
 10f:	90                   	nop

00000110 <strcpy>:
#include "user/user.h"
#include "../kernel/x86.h"

char*
strcpy(char *s, const char *t)
{
 110:	55                   	push   %ebp
  char *os;

  os = s;
  while((*s++ = *t++) != 0)
 111:	31 c0                	xor    %eax,%eax
{
 113:	89 e5                	mov    %esp,%ebp
 115:	53                   	push   %ebx
 116:	8b 4d 08             	mov    0x8(%ebp),%ecx
 119:	8b 5d 0c             	mov    0xc(%ebp),%ebx
 11c:	8d 74 26 00          	lea    0x0(%esi,%eiz,1),%esi
  while((*s++ = *t++) != 0)
 120:	0f b6 14 03          	movzbl (%ebx,%eax,1),%edx
 124:	88 14 01             	mov    %dl,(%ecx,%eax,1)
 127:	83 c0 01             	add    $0x1,%eax
 12a:	84 d2                	test   %dl,%dl
 12c:	75 f2                	jne    120 <strcpy+0x10>
    ;
  return os;
}
 12e:	8b 5d fc             	mov    -0x4(%ebp),%ebx
 131:	89 c8                	mov    %ecx,%eax
 133:	c9                   	leave  
 134:	c3                   	ret    
 135:	8d b4 26 00 00 00 00 	lea    0x0(%esi,%eiz,1),%esi
 13c:	8d 74 26 00          	lea    0x0(%esi,%eiz,1),%esi

00000140 <strcmp>:

int
strcmp(const char *p, const char *q)
{
 140:	55                   	push   %ebp
 141:	89 e5                	mov    %esp,%ebp
 143:	53                   	push   %ebx
 144:	8b 55 08             	mov    0x8(%ebp),%edx
 147:	8b 4d 0c             	mov    0xc(%ebp),%ecx
  while(*p && *p == *q)
 14a:	0f b6 02             	movzbl (%edx),%eax
 14d:	84 c0                	test   %al,%al
 14f:	75 17                	jne    168 <strcmp+0x28>
 151:	eb 3a                	jmp    18d <strcmp+0x4d>
 153:	8d 74 26 00          	lea    0x0(%esi,%eiz,1),%esi
 157:	90                   	nop
 158:	0f b6 42 01          	movzbl 0x1(%edx),%eax
    p++, q++;
 15c:	83 c2 01             	add    $0x1,%edx
 15f:	8d 59 01             	lea    0x1(%ecx),%ebx
  while(*p && *p == *q)
 162:	84 c0                	test   %al,%al
 164:	74 1a                	je     180 <strcmp+0x40>
    p++, q++;
 166:	89 d9                	mov    %ebx,%ecx
  while(*p && *p == *q)
 168:	0f b6 19             	movzbl (%ecx),%ebx
 16b:	38 c3                	cmp    %al,%bl
 16d:	74 e9                	je     158 <strcmp+0x18>
  return (uchar)*p - (uchar)*q;
 16f:	29 d8                	sub    %ebx,%eax
}
 171:	8b 5d fc             	mov    -0x4(%ebp),%ebx
 174:	c9                   	leave  
 175:	c3                   	ret    
 176:	8d b4 26 00 00 00 00 	lea    0x0(%esi,%eiz,1),%esi
 17d:	8d 76 00             	lea    0x0(%esi),%esi
  return (uchar)*p - (uchar)*q;
 180:	0f b6 59 01          	movzbl 0x1(%ecx),%ebx
 184:	31 c0                	xor    %eax,%eax
 186:	29 d8                	sub    %ebx,%eax
}
 188:	8b 5d fc             	mov    -0x4(%ebp),%ebx
 18b:	c9                   	leave  
 18c:	c3                   	ret    
  return (uchar)*p - (uchar)*q;
 18d:	0f b6 19             	movzbl (%ecx),%ebx
 190:	31 c0                	xor    %eax,%eax
 192:	eb db                	jmp    16f <strcmp+0x2f>
 194:	8d b4 26 00 00 00 00 	lea    0x0(%esi,%eiz,1),%esi
 19b:	8d 74 26 00          	lea    0x0(%esi,%eiz,1),%esi
 19f:	90                   	nop

000001a0 <strlen>:

uint
strlen(const char *s)
{
 1a0:	55                   	push   %ebp
 1a1:	89 e5                	mov    %esp,%ebp
 1a3:	8b 55 08             	mov    0x8(%ebp),%edx
  int n;

  for(n = 0; s[n]; n++)
 1a6:	80 3a 00             	cmpb   $0x0,(%edx)
 1a9:	74 15                	je     1c0 <strlen+0x20>
 1ab:	31 c0                	xor    %eax,%eax
 1ad:	8d 76 00             	lea    0x0(%esi),%esi
 1b0:	83 c0 01             	add    $0x1,%eax
 1b3:	80 3c 02 00          	cmpb   $0x0,(%edx,%eax,1)
 1b7:	89 c1                	mov    %eax,%ecx
 1b9:	75 f5                	jne    1b0 <strlen+0x10>
    ;
  return n;
}
 1bb:	89 c8                	mov    %ecx,%eax
 1bd:	5d                   	pop    %ebp
 1be:	c3                   	ret    
 1bf:	90                   	nop
  for(n = 0; s[n]; n++)
 1c0:	31 c9                	xor    %ecx,%ecx
}
 1c2:	5d                   	pop    %ebp
 1c3:	89 c8                	mov    %ecx,%eax
 1c5:	c3                   	ret    
 1c6:	8d b4 26 00 00 00 00 	lea    0x0(%esi,%eiz,1),%esi
 1cd:	8d 76 00             	lea    0x0(%esi),%esi

000001d0 <memset>:

void*
memset(void *dst, int c, uint n)
{
 1d0:	55                   	push   %ebp
 1d1:	89 e5                	mov    %esp,%ebp
 1d3:	57                   	push   %edi
 1d4:	8b 55 08             	mov    0x8(%ebp),%edx
}

static inline void
stosb(void *addr, int data, int cnt)
{
  asm volatile("cld; rep stosb" :
 1d7:	8b 4d 10             	mov    0x10(%ebp),%ecx
 1da:	8b 45 0c             	mov    0xc(%ebp),%eax
 1dd:	89 d7                	mov    %edx,%edi
 1df:	fc                   	cld    
 1e0:	f3 aa                	rep stos %al,%es:(%edi)
  stosb(dst, c, n);
  return dst;
}
 1e2:	8b 7d fc             	mov    -0x4(%ebp),%edi
 1e5:	89 d0                	mov    %edx,%eax
 1e7:	c9                   	leave  
 1e8:	c3                   	ret    
 1e9:	8d b4 26 00 00 00 00 	lea    0x0(%esi,%eiz,1),%esi

000001f0 <strchr>:

char*
strchr(const char *s, char c)
{
 1f0:	55                   	push   %ebp
 1f1:	89 e5                	mov    %esp,%ebp
 1f3:	8b 45 08             	mov    0x8(%ebp),%eax
 1f6:	0f b6 4d 0c          	movzbl 0xc(%ebp),%ecx
  for(; *s; s++)
 1fa:	0f b6 10             	movzbl (%eax),%edx
 1fd:	84 d2                	test   %dl,%dl
 1ff:	75 12                	jne    213 <strchr+0x23>
 201:	eb 1d                	jmp    220 <strchr+0x30>
 203:	8d 74 26 00          	lea    0x0(%esi,%eiz,1),%esi
 207:	90                   	nop
 208:	0f b6 50 01          	movzbl 0x1(%eax),%edx
 20c:	83 c0 01             	add    $0x1,%eax
 20f:	84 d2                	test   %dl,%dl
 211:	74 0d                	je     220 <strchr+0x30>
    if(*s == c)
 213:	38 d1                	cmp    %dl,%cl
 215:	75 f1                	jne    208 <strchr+0x18>
      return (char*)s;
  return 0;
}
 217:	5d                   	pop    %ebp
 218:	c3                   	ret    
 219:	8d b4 26 00 00 00 00 	lea    0x0(%esi,%eiz,1),%esi
  return 0;
 220:	31 c0                	xor    %eax,%eax
}
 222:	5d                   	pop    %ebp
 223:	c3                   	ret    
 224:	8d b4 26 00 00 00 00 	lea    0x0(%esi,%eiz,1),%esi
 22b:	8d 74 26 00          	lea    0x0(%esi,%eiz,1),%esi
 22f:	90                   	nop

00000230 <gets>:

char*
gets(char *buf, int max)
{
 230:	55                   	push   %ebp
 231:	89 e5                	mov    %esp,%ebp
 233:	57                   	push   %edi
 234:	56                   	push   %esi
  int i, cc;
  char c;

  for(i=0; i+1 < max; ){
    cc = read(0, &c, 1);
 235:	8d 7d e7             	lea    -0x19(%ebp),%edi
{
 238:	53                   	push   %ebx
  for(i=0; i+1 < max; ){
 239:	31 db                	xor    %ebx,%ebx
{
 23b:	83 ec 1c             	sub    $0x1c,%esp
  for(i=0; i+1 < max; ){
 23e:	eb 27                	jmp    267 <gets+0x37>
    cc = read(0, &c, 1);
 240:	83 ec 04             	sub    $0x4,%esp
 243:	6a 01                	push   $0x1
 245:	57                   	push   %edi
 246:	6a 00                	push   $0x0
 248:	e8 2e 01 00 00       	call   37b <read>
    if(cc < 1)
 24d:	83 c4 10             	add    $0x10,%esp
 250:	85 c0                	test   %eax,%eax
 252:	7e 1d                	jle    271 <gets+0x41>
      break;
    buf[i++] = c;
 254:	0f b6 45 e7          	movzbl -0x19(%ebp),%eax
 258:	8b 55 08             	mov    0x8(%ebp),%edx
 25b:	88 44 1a ff          	mov    %al,-0x1(%edx,%ebx,1)
    if(c == '\n' || c == '\r')
 25f:	3c 0a                	cmp    $0xa,%al
 261:	74 1d                	je     280 <gets+0x50>
 263:	3c 0d                	cmp    $0xd,%al
 265:	74 19                	je     280 <gets+0x50>
  for(i=0; i+1 < max; ){
 267:	89 de                	mov    %ebx,%esi
 269:	83 c3 01             	add    $0x1,%ebx
 26c:	3b 5d 0c             	cmp    0xc(%ebp),%ebx
 26f:	7c cf                	jl     240 <gets+0x10>
      break;
  }
  buf[i] = '\0';
 271:	8b 45 08             	mov    0x8(%ebp),%eax
 274:	c6 04 30 00          	movb   $0x0,(%eax,%esi,1)
  return buf;
}
 278:	8d 65 f4             	lea    -0xc(%ebp),%esp
 27b:	5b                   	pop    %ebx
 27c:	5e                   	pop    %esi
 27d:	5f                   	pop    %edi
 27e:	5d                   	pop    %ebp
 27f:	c3                   	ret    
  buf[i] = '\0';
 280:	8b 45 08             	mov    0x8(%ebp),%eax
 283:	89 de                	mov    %ebx,%esi
 285:	c6 04 30 00          	movb   $0x0,(%eax,%esi,1)
}
 289:	8d 65 f4             	lea    -0xc(%ebp),%esp
 28c:	5b                   	pop    %ebx
 28d:	5e                   	pop    %esi
 28e:	5f                   	pop    %edi
 28f:	5d                   	pop    %ebp
 290:	c3                   	ret    
 291:	8d b4 26 00 00 00 00 	lea    0x0(%esi,%eiz,1),%esi
 298:	8d b4 26 00 00 00 00 	lea    0x0(%esi,%eiz,1),%esi
 29f:	90                   	nop

000002a0 <stat>:

int
stat(const char *n, struct stat *st)
{
 2a0:	55                   	push   %ebp
 2a1:	89 e5                	mov    %esp,%ebp
 2a3:	56                   	push   %esi
 2a4:	53                   	push   %ebx
  int fd;
  int r;

  fd = open(n, O_RDONLY);
 2a5:	83 ec 08             	sub    $0x8,%esp
 2a8:	6a 00                	push   $0x0
 2aa:	ff 75 08             	push   0x8(%ebp)
 2ad:	e8 f1 00 00 00       	call   3a3 <open>
  if(fd < 0)
 2b2:	83 c4 10             	add    $0x10,%esp
 2b5:	85 c0                	test   %eax,%eax
 2b7:	78 27                	js     2e0 <stat+0x40>
    return -1;
  r = fstat(fd, st);
 2b9:	83 ec 08             	sub    $0x8,%esp
 2bc:	ff 75 0c             	push   0xc(%ebp)
 2bf:	89 c3                	mov    %eax,%ebx
 2c1:	50                   	push   %eax
 2c2:	e8 f4 00 00 00       	call   3bb <fstat>
  close(fd);
 2c7:	89 1c 24             	mov    %ebx,(%esp)
  r = fstat(fd, st);
 2ca:	89 c6                	mov    %eax,%esi
  close(fd);
 2cc:	e8 ba 00 00 00       	call   38b <close>
  return r;
 2d1:	83 c4 10             	add    $0x10,%esp
}
 2d4:	8d 65 f8             	lea    -0x8(%ebp),%esp
 2d7:	89 f0                	mov    %esi,%eax
 2d9:	5b                   	pop    %ebx
 2da:	5e                   	pop    %esi
 2db:	5d                   	pop    %ebp
 2dc:	c3                   	ret    
 2dd:	8d 76 00             	lea    0x0(%esi),%esi
    return -1;
 2e0:	be ff ff ff ff       	mov    $0xffffffff,%esi
 2e5:	eb ed                	jmp    2d4 <stat+0x34>
 2e7:	8d b4 26 00 00 00 00 	lea    0x0(%esi,%eiz,1),%esi
 2ee:	66 90                	xchg   %ax,%ax

000002f0 <atoi>:

int
atoi(const char *s)
{
 2f0:	55                   	push   %ebp
 2f1:	89 e5                	mov    %esp,%ebp
 2f3:	53                   	push   %ebx
 2f4:	8b 55 08             	mov    0x8(%ebp),%edx
  int n;

  n = 0;
  while('0' <= *s && *s <= '9')
 2f7:	0f be 02             	movsbl (%edx),%eax
 2fa:	8d 48 d0             	lea    -0x30(%eax),%ecx
 2fd:	80 f9 09             	cmp    $0x9,%cl
  n = 0;
 300:	b9 00 00 00 00       	mov    $0x0,%ecx
  while('0' <= *s && *s <= '9')
 305:	77 1e                	ja     325 <atoi+0x35>
 307:	8d b4 26 00 00 00 00 	lea    0x0(%esi,%eiz,1),%esi
 30e:	66 90                	xchg   %ax,%ax
    n = n*10 + *s++ - '0';
 310:	83 c2 01             	add    $0x1,%edx
 313:	8d 0c 89             	lea    (%ecx,%ecx,4),%ecx
 316:	8d 4c 48 d0          	lea    -0x30(%eax,%ecx,2),%ecx
  while('0' <= *s && *s <= '9')
 31a:	0f be 02             	movsbl (%edx),%eax
 31d:	8d 58 d0             	lea    -0x30(%eax),%ebx
 320:	80 fb 09             	cmp    $0x9,%bl
 323:	76 eb                	jbe    310 <atoi+0x20>
  return n;
}
 325:	8b 5d fc             	mov    -0x4(%ebp),%ebx
 328:	89 c8                	mov    %ecx,%eax
 32a:	c9                   	leave  
 32b:	c3                   	ret    
 32c:	8d 74 26 00          	lea    0x0(%esi,%eiz,1),%esi

00000330 <memmove>:

void*
memmove(void *vdst, const void *vsrc, int n)
{
 330:	55                   	push   %ebp
 331:	89 e5                	mov    %esp,%ebp
 333:	57                   	push   %edi
 334:	8b 45 10             	mov    0x10(%ebp),%eax
 337:	8b 55 08             	mov    0x8(%ebp),%edx
 33a:	56                   	push   %esi
 33b:	8b 75 0c             	mov    0xc(%ebp),%esi
  char *dst;
  const char *src;

  dst = vdst;
  src = vsrc;
  while(n-- > 0)
 33e:	85 c0                	test   %eax,%eax
 340:	7e 13                	jle    355 <memmove+0x25>
 342:	01 d0                	add    %edx,%eax
  dst = vdst;
 344:	89 d7                	mov    %edx,%edi
 346:	8d b4 26 00 00 00 00 	lea    0x0(%esi,%eiz,1),%esi
 34d:	8d 76 00             	lea    0x0(%esi),%esi
    *dst++ = *src++;
 350:	a4                   	movsb  %ds:(%esi),%es:(%edi)
  while(n-- > 0)
 351:	39 f8                	cmp    %edi,%eax
 353:	75 fb                	jne    350 <memmove+0x20>
  return vdst;
}
 355:	5e                   	pop    %esi
 356:	89 d0                	mov    %edx,%eax
 358:	5f                   	pop    %edi
 359:	5d                   	pop    %ebp
 35a:	c3                   	ret    

0000035b <fork>:
  name: \
    movl $SYS_ ## name, %eax; \
    int $T_SYSCALL; \
    ret

SYSCALL(fork)
 35b:	b8 01 00 00 00       	mov    $0x1,%eax
 360:	cd 40                	int    $0x40
 362:	c3                   	ret    

00000363 <exit>:
SYSCALL(exit)
 363:	b8 02 00 00 00       	mov    $0x2,%eax
 368:	cd 40                	int    $0x40
 36a:	c3                   	ret    

0000036b <wait>:
SYSCALL(wait)
 36b:	b8 03 00 00 00       	mov    $0x3,%eax
 370:	cd 40                	int    $0x40
 372:	c3                   	ret    

00000373 <pipe>:
SYSCALL(pipe)
 373:	b8 04 00 00 00       	mov    $0x4,%eax
 378:	cd 40                	int    $0x40
 37a:	c3                   	ret    

0000037b <read>:
SYSCALL(read)
 37b:	b8 05 00 00 00       	mov    $0x5,%eax
 380:	cd 40                	int    $0x40
 382:	c3                   	ret    

00000383 <write>:
SYSCALL(write)
 383:	b8 10 00 00 00       	mov    $0x10,%eax
 388:	cd 40                	int    $0x40
 38a:	c3                   	ret    

0000038b <close>:
SYSCALL(close)
 38b:	b8 15 00 00 00       	mov    $0x15,%eax
 390:	cd 40                	int    $0x40
 392:	c3                   	ret    

00000393 <kill>:
SYSCALL(kill)
 393:	b8 06 00 00 00       	mov    $0x6,%eax
 398:	cd 40                	int    $0x40
 39a:	c3                   	ret    

0000039b <exec>:
SYSCALL(exec)
 39b:	b8 07 00 00 00       	mov    $0x7,%eax
 3a0:	cd 40                	int    $0x40
 3a2:	c3                   	ret    

000003a3 <open>:
SYSCALL(open)
 3a3:	b8 0f 00 00 00       	mov    $0xf,%eax
 3a8:	cd 40                	int    $0x40
 3aa:	c3                   	ret    

000003ab <mknod>:
SYSCALL(mknod)
 3ab:	b8 11 00 00 00       	mov    $0x11,%eax
 3b0:	cd 40                	int    $0x40
 3b2:	c3                   	ret    

000003b3 <unlink>:
SYSCALL(unlink)
 3b3:	b8 12 00 00 00       	mov    $0x12,%eax
 3b8:	cd 40                	int    $0x40
 3ba:	c3                   	ret    

000003bb <fstat>:
SYSCALL(fstat)
 3bb:	b8 08 00 00 00       	mov    $0x8,%eax
 3c0:	cd 40                	int    $0x40
 3c2:	c3                   	ret    

000003c3 <link>:
SYSCALL(link)
 3c3:	b8 13 00 00 00       	mov    $0x13,%eax
 3c8:	cd 40                	int    $0x40
 3ca:	c3                   	ret    

000003cb <mkdir>:
SYSCALL(mkdir)
 3cb:	b8 14 00 00 00       	mov    $0x14,%eax
 3d0:	cd 40                	int    $0x40
 3d2:	c3                   	ret    

000003d3 <chdir>:
SYSCALL(chdir)
 3d3:	b8 09 00 00 00       	mov    $0x9,%eax
 3d8:	cd 40                	int    $0x40
 3da:	c3                   	ret    

000003db <dup>:
SYSCALL(dup)
 3db:	b8 0a 00 00 00       	mov    $0xa,%eax
 3e0:	cd 40                	int    $0x40
 3e2:	c3                   	ret    

000003e3 <getpid>:
SYSCALL(getpid)
 3e3:	b8 0b 00 00 00       	mov    $0xb,%eax
 3e8:	cd 40                	int    $0x40
 3ea:	c3                   	ret    

000003eb <sbrk>:
SYSCALL(sbrk)
 3eb:	b8 0c 00 00 00       	mov    $0xc,%eax
 3f0:	cd 40                	int    $0x40
 3f2:	c3                   	ret    

000003f3 <sleep>:
SYSCALL(sleep)
 3f3:	b8 0d 00 00 00       	mov    $0xd,%eax
 3f8:	cd 40                	int    $0x40
 3fa:	c3                   	ret    

000003fb <uptime>:
SYSCALL(uptime)
 3fb:	b8 0e 00 00 00       	mov    $0xe,%eax
 400:	cd 40                	int    $0x40
 402:	c3                   	ret    

00000403 <cpuhalt>:
SYSCALL(cpuhalt)
 403:	b8 16 00 00 00       	mov    $0x16,%eax
 408:	cd 40                	int    $0x40
 40a:	c3                   	ret    
 40b:	66 90                	xchg   %ax,%ax
 40d:	66 90                	xchg   %ax,%ax
 40f:	90                   	nop

00000410 <printint.constprop.0>:
  for (i = 0; i < (sizeof(uint) * 2); i++, x <<= 4)
    putc(fd, digits[x >> (sizeof(uint) * 8 - 4)]);
}

static void
printint(int fd, int xx, int base, int sgn)
 410:	55                   	push   %ebp
 411:	89 e5                	mov    %esp,%ebp
 413:	57                   	push   %edi
 414:	56                   	push   %esi
 415:	53                   	push   %ebx
 416:	83 ec 3c             	sub    $0x3c,%esp
 419:	89 55 c4             	mov    %edx,-0x3c(%ebp)
  char buf[16];
  int i, neg;
  uint x;

  neg = 0;
  if(sgn && xx < 0){
 41c:	85 c0                	test   %eax,%eax
 41e:	0f 89 84 00 00 00    	jns    4a8 <printint.constprop.0+0x98>
 424:	83 e1 01             	and    $0x1,%ecx
 427:	74 7f                	je     4a8 <printint.constprop.0+0x98>
    neg = 1;
 429:	c7 45 bc 01 00 00 00 	movl   $0x1,-0x44(%ebp)
    x = -xx;
 430:	f7 d8                	neg    %eax
 432:	89 c1                	mov    %eax,%ecx
  } else {
    x = xx;
  }

  i = 0;
 434:	31 db                	xor    %ebx,%ebx
 436:	8d 75 d7             	lea    -0x29(%ebp),%esi
 439:	8d b4 26 00 00 00 00 	lea    0x0(%esi,%eiz,1),%esi
  do{
    buf[i++] = digits[x % base];
 440:	89 c8                	mov    %ecx,%eax
 442:	31 d2                	xor    %edx,%edx
 444:	89 cf                	mov    %ecx,%edi
 446:	f7 75 c4             	divl   -0x3c(%ebp)
 449:	0f b6 92 40 09 00 00 	movzbl 0x940(%edx),%edx
 450:	89 45 c0             	mov    %eax,-0x40(%ebp)
 453:	89 d8                	mov    %ebx,%eax
 455:	8d 5b 01             	lea    0x1(%ebx),%ebx
  }while((x /= base) != 0);
 458:	8b 4d c0             	mov    -0x40(%ebp),%ecx
    buf[i++] = digits[x % base];
 45b:	88 14 1e             	mov    %dl,(%esi,%ebx,1)
  }while((x /= base) != 0);
 45e:	3b 7d c4             	cmp    -0x3c(%ebp),%edi
 461:	73 dd                	jae    440 <printint.constprop.0+0x30>
  if(neg)
 463:	8b 4d bc             	mov    -0x44(%ebp),%ecx
 466:	85 c9                	test   %ecx,%ecx
 468:	74 0c                	je     476 <printint.constprop.0+0x66>
    buf[i++] = '-';
 46a:	c6 44 1d d8 2d       	movb   $0x2d,-0x28(%ebp,%ebx,1)
    buf[i++] = digits[x % base];
 46f:	89 d8                	mov    %ebx,%eax
    buf[i++] = '-';
 471:	ba 2d 00 00 00       	mov    $0x2d,%edx

  while(--i >= 0)
 476:	8d 5c 05 d7          	lea    -0x29(%ebp,%eax,1),%ebx
 47a:	eb 0a                	jmp    486 <printint.constprop.0+0x76>
 47c:	8d 74 26 00          	lea    0x0(%esi,%eiz,1),%esi
    putc(fd, buf[i]);
 480:	0f b6 13             	movzbl (%ebx),%edx
 483:	83 eb 01             	sub    $0x1,%ebx
  write(fd, &c, 1);
 486:	83 ec 04             	sub    $0x4,%esp
 489:	88 55 d7             	mov    %dl,-0x29(%ebp)
 48c:	6a 01                	push   $0x1
 48e:	56                   	push   %esi
 48f:	6a 01                	push   $0x1
 491:	e8 ed fe ff ff       	call   383 <write>
  while(--i >= 0)
 496:	83 c4 10             	add    $0x10,%esp
 499:	39 de                	cmp    %ebx,%esi
 49b:	75 e3                	jne    480 <printint.constprop.0+0x70>
}
 49d:	8d 65 f4             	lea    -0xc(%ebp),%esp
 4a0:	5b                   	pop    %ebx
 4a1:	5e                   	pop    %esi
 4a2:	5f                   	pop    %edi
 4a3:	5d                   	pop    %ebp
 4a4:	c3                   	ret    
 4a5:	8d 76 00             	lea    0x0(%esi),%esi
  neg = 0;
 4a8:	c7 45 bc 00 00 00 00 	movl   $0x0,-0x44(%ebp)
    x = xx;
 4af:	89 c1                	mov    %eax,%ecx
 4b1:	eb 81                	jmp    434 <printint.constprop.0+0x24>
 4b3:	8d b4 26 00 00 00 00 	lea    0x0(%esi,%eiz,1),%esi
 4ba:	8d b6 00 00 00 00    	lea    0x0(%esi),%esi

000004c0 <vprintf.constprop.0>:
static void vprintf(int fd, const char *fmt, va_list ap)
 4c0:	55                   	push   %ebp
 4c1:	89 e5                	mov    %esp,%ebp
 4c3:	57                   	push   %edi
 4c4:	56                   	push   %esi
 4c5:	53                   	push   %ebx
 4c6:	83 ec 2c             	sub    $0x2c,%esp
 4c9:	89 55 d4             	mov    %edx,-0x2c(%ebp)
{
  char *s;
  int c, i, state;

  state = 0;
  for(i = 0; fmt[i]; i++){
 4cc:	0f b6 10             	movzbl (%eax),%edx
 4cf:	84 d2                	test   %dl,%dl
 4d1:	74 6c                	je     53f <vprintf.constprop.0+0x7f>
 4d3:	8d 58 01             	lea    0x1(%eax),%ebx
 4d6:	31 ff                	xor    %edi,%edi
 4d8:	8d 75 e7             	lea    -0x19(%ebp),%esi
 4db:	eb 25                	jmp    502 <vprintf.constprop.0+0x42>
 4dd:	8d 76 00             	lea    0x0(%esi),%esi
    c = fmt[i] & 0xff;
    if(state == 0){
      if(c == '%'){
 4e0:	83 f8 25             	cmp    $0x25,%eax
 4e3:	74 4b                	je     530 <vprintf.constprop.0+0x70>
  write(fd, &c, 1);
 4e5:	83 ec 04             	sub    $0x4,%esp
 4e8:	88 55 e7             	mov    %dl,-0x19(%ebp)
 4eb:	6a 01                	push   $0x1
 4ed:	56                   	push   %esi
 4ee:	6a 01                	push   $0x1
 4f0:	e8 8e fe ff ff       	call   383 <write>
        state = '%';
      } else {
        putc(fd, c);
 4f5:	83 c4 10             	add    $0x10,%esp
  for(i = 0; fmt[i]; i++){
 4f8:	0f b6 13             	movzbl (%ebx),%edx
 4fb:	83 c3 01             	add    $0x1,%ebx
 4fe:	84 d2                	test   %dl,%dl
 500:	74 3d                	je     53f <vprintf.constprop.0+0x7f>
    c = fmt[i] & 0xff;
 502:	0f b6 c2             	movzbl %dl,%eax
    if(state == 0){
 505:	85 ff                	test   %edi,%edi
 507:	74 d7                	je     4e0 <vprintf.constprop.0+0x20>
      }
    } else if(state == '%'){
 509:	83 ff 25             	cmp    $0x25,%edi
 50c:	75 ea                	jne    4f8 <vprintf.constprop.0+0x38>
      if(c == 'd'){
 50e:	83 f8 25             	cmp    $0x25,%eax
 511:	0f 84 a9 01 00 00    	je     6c0 <vprintf.constprop.0+0x200>
 517:	83 e8 63             	sub    $0x63,%eax
 51a:	83 f8 15             	cmp    $0x15,%eax
 51d:	77 31                	ja     550 <vprintf.constprop.0+0x90>
 51f:	ff 24 85 e8 08 00 00 	jmp    *0x8e8(,%eax,4)
 526:	8d b4 26 00 00 00 00 	lea    0x0(%esi,%eiz,1),%esi
 52d:	8d 76 00             	lea    0x0(%esi),%esi
  for(i = 0; fmt[i]; i++){
 530:	0f b6 13             	movzbl (%ebx),%edx
 533:	83 c3 01             	add    $0x1,%ebx
        state = '%';
 536:	bf 25 00 00 00       	mov    $0x25,%edi
  for(i = 0; fmt[i]; i++){
 53b:	84 d2                	test   %dl,%dl
 53d:	75 c3                	jne    502 <vprintf.constprop.0+0x42>
        putc(fd, c);
      }
      state = 0;
    }
  }
}
 53f:	8d 65 f4             	lea    -0xc(%ebp),%esp
 542:	5b                   	pop    %ebx
 543:	5e                   	pop    %esi
 544:	5f                   	pop    %edi
 545:	5d                   	pop    %ebp
 546:	c3                   	ret    
 547:	8d b4 26 00 00 00 00 	lea    0x0(%esi,%eiz,1),%esi
 54e:	66 90                	xchg   %ax,%ax
  write(fd, &c, 1);
 550:	83 ec 04             	sub    $0x4,%esp
 553:	88 55 d0             	mov    %dl,-0x30(%ebp)
 556:	6a 01                	push   $0x1
 558:	56                   	push   %esi
 559:	6a 01                	push   $0x1
 55b:	c6 45 e7 25          	movb   $0x25,-0x19(%ebp)
 55f:	e8 1f fe ff ff       	call   383 <write>
        putc(fd, c);
 564:	0f b6 55 d0          	movzbl -0x30(%ebp),%edx
  write(fd, &c, 1);
 568:	83 c4 0c             	add    $0xc,%esp
 56b:	88 55 e7             	mov    %dl,-0x19(%ebp)
 56e:	6a 01                	push   $0x1
      state = 0;
 570:	31 ff                	xor    %edi,%edi
  write(fd, &c, 1);
 572:	56                   	push   %esi
 573:	6a 01                	push   $0x1
 575:	e8 09 fe ff ff       	call   383 <write>
        putc(fd, c);
 57a:	83 c4 10             	add    $0x10,%esp
 57d:	e9 76 ff ff ff       	jmp    4f8 <vprintf.constprop.0+0x38>
 582:	8d b6 00 00 00 00    	lea    0x0(%esi),%esi
        putc(fd, va_arg(ap, uint));
 588:	8b 45 d4             	mov    -0x2c(%ebp),%eax
  write(fd, &c, 1);
 58b:	83 ec 04             	sub    $0x4,%esp
        putc(fd, va_arg(ap, uint));
 58e:	8d 78 04             	lea    0x4(%eax),%edi
 591:	8b 00                	mov    (%eax),%eax
  write(fd, &c, 1);
 593:	6a 01                	push   $0x1
 595:	56                   	push   %esi
 596:	6a 01                	push   $0x1
        putc(fd, va_arg(ap, uint));
 598:	88 45 e7             	mov    %al,-0x19(%ebp)
  write(fd, &c, 1);
 59b:	e8 e3 fd ff ff       	call   383 <write>
        putc(fd, va_arg(ap, uint));
 5a0:	89 7d d4             	mov    %edi,-0x2c(%ebp)
 5a3:	83 c4 10             	add    $0x10,%esp
      state = 0;
 5a6:	31 ff                	xor    %edi,%edi
 5a8:	e9 4b ff ff ff       	jmp    4f8 <vprintf.constprop.0+0x38>
 5ad:	8d 76 00             	lea    0x0(%esi),%esi
        printint(fd, va_arg(ap, int), 10, 1);
 5b0:	8b 45 d4             	mov    -0x2c(%ebp),%eax
 5b3:	b9 01 00 00 00       	mov    $0x1,%ecx
 5b8:	8d 78 04             	lea    0x4(%eax),%edi
        printint(fd, va_arg(ap, uint), 10, 0);
 5bb:	8b 00                	mov    (%eax),%eax
 5bd:	ba 0a 00 00 00       	mov    $0xa,%edx
 5c2:	e8 49 fe ff ff       	call   410 <printint.constprop.0>
 5c7:	89 7d d4             	mov    %edi,-0x2c(%ebp)
      state = 0;
 5ca:	31 ff                	xor    %edi,%edi
 5cc:	e9 27 ff ff ff       	jmp    4f8 <vprintf.constprop.0+0x38>
 5d1:	8d b4 26 00 00 00 00 	lea    0x0(%esi,%eiz,1),%esi
        printint(fd, va_arg(ap, uint), 10, 0);
 5d8:	8b 45 d4             	mov    -0x2c(%ebp),%eax
 5db:	31 c9                	xor    %ecx,%ecx
 5dd:	8d 78 04             	lea    0x4(%eax),%edi
 5e0:	eb d9                	jmp    5bb <vprintf.constprop.0+0xfb>
 5e2:	8d b6 00 00 00 00    	lea    0x0(%esi),%esi
        printptr(fd, va_arg(ap, uint));
 5e8:	8b 45 d4             	mov    -0x2c(%ebp),%eax
  write(fd, &c, 1);
 5eb:	83 ec 04             	sub    $0x4,%esp
 5ee:	c6 45 e7 30          	movb   $0x30,-0x19(%ebp)
        printptr(fd, va_arg(ap, uint));
 5f2:	8b 38                	mov    (%eax),%edi
  write(fd, &c, 1);
 5f4:	6a 01                	push   $0x1
        printptr(fd, va_arg(ap, uint));
 5f6:	8d 48 04             	lea    0x4(%eax),%ecx
  write(fd, &c, 1);
 5f9:	56                   	push   %esi
 5fa:	6a 01                	push   $0x1
        printptr(fd, va_arg(ap, uint));
 5fc:	89 4d d0             	mov    %ecx,-0x30(%ebp)
  write(fd, &c, 1);
 5ff:	e8 7f fd ff ff       	call   383 <write>
 604:	83 c4 0c             	add    $0xc,%esp
 607:	c6 45 e7 78          	movb   $0x78,-0x19(%ebp)
 60b:	6a 01                	push   $0x1
 60d:	56                   	push   %esi
 60e:	6a 01                	push   $0x1
 610:	e8 6e fd ff ff       	call   383 <write>
  putc(fd, 'x');
 615:	c7 45 d4 08 00 00 00 	movl   $0x8,-0x2c(%ebp)
 61c:	83 c4 10             	add    $0x10,%esp
 61f:	90                   	nop
  write(fd, &c, 1);
 620:	83 ec 04             	sub    $0x4,%esp
    putc(fd, digits[x >> (sizeof(uint) * 8 - 4)]);
 623:	89 f8                	mov    %edi,%eax
  for (i = 0; i < (sizeof(uint) * 2); i++, x <<= 4)
 625:	c1 e7 04             	shl    $0x4,%edi
  write(fd, &c, 1);
 628:	6a 01                	push   $0x1
    putc(fd, digits[x >> (sizeof(uint) * 8 - 4)]);
 62a:	c1 e8 1c             	shr    $0x1c,%eax
  write(fd, &c, 1);
 62d:	56                   	push   %esi
 62e:	0f b6 80 40 09 00 00 	movzbl 0x940(%eax),%eax
 635:	6a 01                	push   $0x1
 637:	88 45 e7             	mov    %al,-0x19(%ebp)
 63a:	e8 44 fd ff ff       	call   383 <write>
  for (i = 0; i < (sizeof(uint) * 2); i++, x <<= 4)
 63f:	83 c4 10             	add    $0x10,%esp
 642:	83 6d d4 01          	subl   $0x1,-0x2c(%ebp)
 646:	75 d8                	jne    620 <vprintf.constprop.0+0x160>
        printptr(fd, va_arg(ap, uint));
 648:	8b 45 d0             	mov    -0x30(%ebp),%eax
      state = 0;
 64b:	31 ff                	xor    %edi,%edi
        printptr(fd, va_arg(ap, uint));
 64d:	89 45 d4             	mov    %eax,-0x2c(%ebp)
 650:	e9 a3 fe ff ff       	jmp    4f8 <vprintf.constprop.0+0x38>
 655:	8d 76 00             	lea    0x0(%esi),%esi
        s = va_arg(ap, char*);
 658:	8b 45 d4             	mov    -0x2c(%ebp),%eax
 65b:	8b 38                	mov    (%eax),%edi
 65d:	8d 48 04             	lea    0x4(%eax),%ecx
 660:	89 4d d4             	mov    %ecx,-0x2c(%ebp)
        if(s == 0)
 663:	85 ff                	test   %edi,%edi
 665:	74 64                	je     6cb <vprintf.constprop.0+0x20b>
        while(*s != 0){
 667:	0f b6 07             	movzbl (%edi),%eax
 66a:	84 c0                	test   %al,%al
 66c:	74 1f                	je     68d <vprintf.constprop.0+0x1cd>
 66e:	66 90                	xchg   %ax,%ax
  write(fd, &c, 1);
 670:	83 ec 04             	sub    $0x4,%esp
          s++;
 673:	83 c7 01             	add    $0x1,%edi
 676:	88 45 e7             	mov    %al,-0x19(%ebp)
  write(fd, &c, 1);
 679:	6a 01                	push   $0x1
 67b:	56                   	push   %esi
 67c:	6a 01                	push   $0x1
 67e:	e8 00 fd ff ff       	call   383 <write>
        while(*s != 0){
 683:	0f b6 07             	movzbl (%edi),%eax
 686:	83 c4 10             	add    $0x10,%esp
 689:	84 c0                	test   %al,%al
 68b:	75 e3                	jne    670 <vprintf.constprop.0+0x1b0>
      state = 0;
 68d:	31 ff                	xor    %edi,%edi
 68f:	e9 64 fe ff ff       	jmp    4f8 <vprintf.constprop.0+0x38>
 694:	8d 74 26 00          	lea    0x0(%esi,%eiz,1),%esi
        printint(fd, va_arg(ap, int), 16, 0);
 698:	8b 45 d4             	mov    -0x2c(%ebp),%eax
 69b:	31 c9                	xor    %ecx,%ecx
 69d:	ba 10 00 00 00       	mov    $0x10,%edx
 6a2:	8d 78 04             	lea    0x4(%eax),%edi
 6a5:	8b 00                	mov    (%eax),%eax
 6a7:	e8 64 fd ff ff       	call   410 <printint.constprop.0>
 6ac:	89 7d d4             	mov    %edi,-0x2c(%ebp)
      state = 0;
 6af:	31 ff                	xor    %edi,%edi
 6b1:	e9 42 fe ff ff       	jmp    4f8 <vprintf.constprop.0+0x38>
 6b6:	8d b4 26 00 00 00 00 	lea    0x0(%esi,%eiz,1),%esi
 6bd:	8d 76 00             	lea    0x0(%esi),%esi
        putc(fd, c);
 6c0:	88 55 e7             	mov    %dl,-0x19(%ebp)
  write(fd, &c, 1);
 6c3:	83 ec 04             	sub    $0x4,%esp
 6c6:	e9 a3 fe ff ff       	jmp    56e <vprintf.constprop.0+0xae>
          s = "(null)";
 6cb:	bf e0 08 00 00       	mov    $0x8e0,%edi
        while(*s != 0){
 6d0:	b8 28 00 00 00       	mov    $0x28,%eax
 6d5:	eb 99                	jmp    670 <vprintf.constprop.0+0x1b0>
 6d7:	8d b4 26 00 00 00 00 	lea    0x0(%esi,%eiz,1),%esi
 6de:	66 90                	xchg   %ax,%ax

000006e0 <fprintf>:
// Print to the given fd. Only understands %d,%x, %p, %s, %c.
void
fprintf(int fd, const char *fmt, ...)
{
 6e0:	55                   	push   %ebp
 6e1:	89 e5                	mov    %esp,%ebp
 6e3:	83 ec 08             	sub    $0x8,%esp
 va_list ap;
 va_start(ap, fmt); 
 vprintf(1,fmt,ap);
 6e6:	8b 45 0c             	mov    0xc(%ebp),%eax
 6e9:	8d 55 10             	lea    0x10(%ebp),%edx
 6ec:	e8 cf fd ff ff       	call   4c0 <vprintf.constprop.0>
}
 6f1:	c9                   	leave  
 6f2:	c3                   	ret    
 6f3:	8d b4 26 00 00 00 00 	lea    0x0(%esi,%eiz,1),%esi
 6fa:	8d b6 00 00 00 00    	lea    0x0(%esi),%esi

00000700 <printf>:
void
printf(const char *fmt, ...)
{
 700:	55                   	push   %ebp
 701:	89 e5                	mov    %esp,%ebp
 703:	83 ec 08             	sub    $0x8,%esp
  va_list ap;
  va_start(ap, fmt); 
  vprintf(1,fmt,ap);
 706:	8b 45 08             	mov    0x8(%ebp),%eax
 709:	8d 55 0c             	lea    0xc(%ebp),%edx
 70c:	e8 af fd ff ff       	call   4c0 <vprintf.constprop.0>
}
 711:	c9                   	leave  
 712:	c3                   	ret    
 713:	66 90                	xchg   %ax,%ax
 715:	66 90                	xchg   %ax,%ax
 717:	66 90                	xchg   %ax,%ax
 719:	66 90                	xchg   %ax,%ax
 71b:	66 90                	xchg   %ax,%ax
 71d:	66 90                	xchg   %ax,%ax
 71f:	90                   	nop

00000720 <free>:
static Header base;
static Header *freep;

void
free(void *ap)
{
 720:	55                   	push   %ebp
  Header *bp, *p;

  bp = (Header*)ap - 1;
  for(p = freep; !(bp > p && bp < p->s.ptr); p = p->s.ptr)
 721:	a1 60 0b 00 00       	mov    0xb60,%eax
{
 726:	89 e5                	mov    %esp,%ebp
 728:	57                   	push   %edi
 729:	56                   	push   %esi
 72a:	53                   	push   %ebx
 72b:	8b 5d 08             	mov    0x8(%ebp),%ebx
  bp = (Header*)ap - 1;
 72e:	8d 4b f8             	lea    -0x8(%ebx),%ecx
  for(p = freep; !(bp > p && bp < p->s.ptr); p = p->s.ptr)
 731:	8d b4 26 00 00 00 00 	lea    0x0(%esi,%eiz,1),%esi
 738:	89 c2                	mov    %eax,%edx
 73a:	8b 00                	mov    (%eax),%eax
 73c:	39 ca                	cmp    %ecx,%edx
 73e:	73 30                	jae    770 <free+0x50>
 740:	39 c1                	cmp    %eax,%ecx
 742:	72 04                	jb     748 <free+0x28>
    if(p >= p->s.ptr && (bp > p || bp < p->s.ptr))
 744:	39 c2                	cmp    %eax,%edx
 746:	72 f0                	jb     738 <free+0x18>
      break;
  if(bp + bp->s.size == p->s.ptr){
 748:	8b 73 fc             	mov    -0x4(%ebx),%esi
 74b:	8d 3c f1             	lea    (%ecx,%esi,8),%edi
 74e:	39 f8                	cmp    %edi,%eax
 750:	74 30                	je     782 <free+0x62>
    bp->s.size += p->s.ptr->s.size;
    bp->s.ptr = p->s.ptr->s.ptr;
 752:	89 43 f8             	mov    %eax,-0x8(%ebx)
  } else
    bp->s.ptr = p->s.ptr;
  if(p + p->s.size == bp){
 755:	8b 42 04             	mov    0x4(%edx),%eax
 758:	8d 34 c2             	lea    (%edx,%eax,8),%esi
 75b:	39 f1                	cmp    %esi,%ecx
 75d:	74 3a                	je     799 <free+0x79>
    p->s.size += bp->s.size;
    p->s.ptr = bp->s.ptr;
 75f:	89 0a                	mov    %ecx,(%edx)
  } else
    p->s.ptr = bp;
  freep = p;
}
 761:	5b                   	pop    %ebx
  freep = p;
 762:	89 15 60 0b 00 00    	mov    %edx,0xb60
}
 768:	5e                   	pop    %esi
 769:	5f                   	pop    %edi
 76a:	5d                   	pop    %ebp
 76b:	c3                   	ret    
 76c:	8d 74 26 00          	lea    0x0(%esi,%eiz,1),%esi
    if(p >= p->s.ptr && (bp > p || bp < p->s.ptr))
 770:	39 c2                	cmp    %eax,%edx
 772:	72 c4                	jb     738 <free+0x18>
 774:	39 c1                	cmp    %eax,%ecx
 776:	73 c0                	jae    738 <free+0x18>
  if(bp + bp->s.size == p->s.ptr){
 778:	8b 73 fc             	mov    -0x4(%ebx),%esi
 77b:	8d 3c f1             	lea    (%ecx,%esi,8),%edi
 77e:	39 f8                	cmp    %edi,%eax
 780:	75 d0                	jne    752 <free+0x32>
    bp->s.size += p->s.ptr->s.size;
 782:	03 70 04             	add    0x4(%eax),%esi
 785:	89 73 fc             	mov    %esi,-0x4(%ebx)
    bp->s.ptr = p->s.ptr->s.ptr;
 788:	8b 02                	mov    (%edx),%eax
 78a:	8b 00                	mov    (%eax),%eax
 78c:	89 43 f8             	mov    %eax,-0x8(%ebx)
  if(p + p->s.size == bp){
 78f:	8b 42 04             	mov    0x4(%edx),%eax
 792:	8d 34 c2             	lea    (%edx,%eax,8),%esi
 795:	39 f1                	cmp    %esi,%ecx
 797:	75 c6                	jne    75f <free+0x3f>
    p->s.size += bp->s.size;
 799:	03 43 fc             	add    -0x4(%ebx),%eax
  freep = p;
 79c:	89 15 60 0b 00 00    	mov    %edx,0xb60
    p->s.size += bp->s.size;
 7a2:	89 42 04             	mov    %eax,0x4(%edx)
    p->s.ptr = bp->s.ptr;
 7a5:	8b 4b f8             	mov    -0x8(%ebx),%ecx
 7a8:	89 0a                	mov    %ecx,(%edx)
}
 7aa:	5b                   	pop    %ebx
 7ab:	5e                   	pop    %esi
 7ac:	5f                   	pop    %edi
 7ad:	5d                   	pop    %ebp
 7ae:	c3                   	ret    
 7af:	90                   	nop

000007b0 <malloc>:
  return freep;
}

void*
malloc(uint nbytes)
{
 7b0:	55                   	push   %ebp
 7b1:	89 e5                	mov    %esp,%ebp
 7b3:	57                   	push   %edi
 7b4:	56                   	push   %esi
 7b5:	53                   	push   %ebx
 7b6:	83 ec 1c             	sub    $0x1c,%esp
  Header *p, *prevp;
  uint nunits;

  nunits = (nbytes + sizeof(Header) - 1)/sizeof(Header) + 1;
 7b9:	8b 45 08             	mov    0x8(%ebp),%eax
  if((prevp = freep) == 0){
 7bc:	8b 3d 60 0b 00 00    	mov    0xb60,%edi
  nunits = (nbytes + sizeof(Header) - 1)/sizeof(Header) + 1;
 7c2:	8d 70 07             	lea    0x7(%eax),%esi
 7c5:	c1 ee 03             	shr    $0x3,%esi
 7c8:	83 c6 01             	add    $0x1,%esi
  if((prevp = freep) == 0){
 7cb:	85 ff                	test   %edi,%edi
 7cd:	0f 84 9d 00 00 00    	je     870 <malloc+0xc0>
    base.s.ptr = freep = prevp = &base;
    base.s.size = 0;
  }
  for(p = prevp->s.ptr; ; prevp = p, p = p->s.ptr){
 7d3:	8b 17                	mov    (%edi),%edx
    if(p->s.size >= nunits){
 7d5:	8b 4a 04             	mov    0x4(%edx),%ecx
 7d8:	39 f1                	cmp    %esi,%ecx
 7da:	73 6a                	jae    846 <malloc+0x96>
 7dc:	bb 00 10 00 00       	mov    $0x1000,%ebx
 7e1:	39 de                	cmp    %ebx,%esi
 7e3:	0f 43 de             	cmovae %esi,%ebx
  p = sbrk(nu * sizeof(Header));
 7e6:	8d 04 dd 00 00 00 00 	lea    0x0(,%ebx,8),%eax
 7ed:	89 45 e4             	mov    %eax,-0x1c(%ebp)
 7f0:	eb 17                	jmp    809 <malloc+0x59>
 7f2:	8d b6 00 00 00 00    	lea    0x0(%esi),%esi
  for(p = prevp->s.ptr; ; prevp = p, p = p->s.ptr){
 7f8:	8b 02                	mov    (%edx),%eax
    if(p->s.size >= nunits){
 7fa:	8b 48 04             	mov    0x4(%eax),%ecx
 7fd:	39 f1                	cmp    %esi,%ecx
 7ff:	73 4f                	jae    850 <malloc+0xa0>
        p->s.size = nunits;
      }
      freep = prevp;
      return (void*)(p + 1);
    }
    if(p == freep)
 801:	8b 3d 60 0b 00 00    	mov    0xb60,%edi
 807:	89 c2                	mov    %eax,%edx
 809:	39 d7                	cmp    %edx,%edi
 80b:	75 eb                	jne    7f8 <malloc+0x48>
  p = sbrk(nu * sizeof(Header));
 80d:	83 ec 0c             	sub    $0xc,%esp
 810:	ff 75 e4             	push   -0x1c(%ebp)
 813:	e8 d3 fb ff ff       	call   3eb <sbrk>
  if(p == (char*)-1)
 818:	83 c4 10             	add    $0x10,%esp
 81b:	83 f8 ff             	cmp    $0xffffffff,%eax
 81e:	74 1c                	je     83c <malloc+0x8c>
  hp->s.size = nu;
 820:	89 58 04             	mov    %ebx,0x4(%eax)
  free((void*)(hp + 1));
 823:	83 ec 0c             	sub    $0xc,%esp
 826:	83 c0 08             	add    $0x8,%eax
 829:	50                   	push   %eax
 82a:	e8 f1 fe ff ff       	call   720 <free>
  return freep;
 82f:	8b 15 60 0b 00 00    	mov    0xb60,%edx
      if((p = morecore(nunits)) == 0)
 835:	83 c4 10             	add    $0x10,%esp
 838:	85 d2                	test   %edx,%edx
 83a:	75 bc                	jne    7f8 <malloc+0x48>
        return 0;
  }
}
 83c:	8d 65 f4             	lea    -0xc(%ebp),%esp
        return 0;
 83f:	31 c0                	xor    %eax,%eax
}
 841:	5b                   	pop    %ebx
 842:	5e                   	pop    %esi
 843:	5f                   	pop    %edi
 844:	5d                   	pop    %ebp
 845:	c3                   	ret    
    if(p->s.size >= nunits){
 846:	89 d0                	mov    %edx,%eax
 848:	89 fa                	mov    %edi,%edx
 84a:	8d b6 00 00 00 00    	lea    0x0(%esi),%esi
      if(p->s.size == nunits)
 850:	39 ce                	cmp    %ecx,%esi
 852:	74 4c                	je     8a0 <malloc+0xf0>
        p->s.size -= nunits;
 854:	29 f1                	sub    %esi,%ecx
 856:	89 48 04             	mov    %ecx,0x4(%eax)
        p += p->s.size;
 859:	8d 04 c8             	lea    (%eax,%ecx,8),%eax
        p->s.size = nunits;
 85c:	89 70 04             	mov    %esi,0x4(%eax)
      freep = prevp;
 85f:	89 15 60 0b 00 00    	mov    %edx,0xb60
}
 865:	8d 65 f4             	lea    -0xc(%ebp),%esp
      return (void*)(p + 1);
 868:	83 c0 08             	add    $0x8,%eax
}
 86b:	5b                   	pop    %ebx
 86c:	5e                   	pop    %esi
 86d:	5f                   	pop    %edi
 86e:	5d                   	pop    %ebp
 86f:	c3                   	ret    
    base.s.ptr = freep = prevp = &base;
 870:	c7 05 60 0b 00 00 64 	movl   $0xb64,0xb60
 877:	0b 00 00 
    base.s.size = 0;
 87a:	bf 64 0b 00 00       	mov    $0xb64,%edi
    base.s.ptr = freep = prevp = &base;
 87f:	c7 05 64 0b 00 00 64 	movl   $0xb64,0xb64
 886:	0b 00 00 
  for(p = prevp->s.ptr; ; prevp = p, p = p->s.ptr){
 889:	89 fa                	mov    %edi,%edx
    base.s.size = 0;
 88b:	c7 05 68 0b 00 00 00 	movl   $0x0,0xb68
 892:	00 00 00 
    if(p->s.size >= nunits){
 895:	e9 42 ff ff ff       	jmp    7dc <malloc+0x2c>
 89a:	8d b6 00 00 00 00    	lea    0x0(%esi),%esi
        prevp->s.ptr = p->s.ptr;
 8a0:	8b 08                	mov    (%eax),%ecx
 8a2:	89 0a                	mov    %ecx,(%edx)
 8a4:	eb b9                	jmp    85f <malloc+0xaf>
