
user/_wc:     file format elf32-i386


Disassembly of section .text:

00000000 <main>:
  printf("%d %d %d %s\n", l, w, c, name);
}

int
main(int argc, char *argv[])
{
   0:	8d 4c 24 04          	lea    0x4(%esp),%ecx
   4:	83 e4 f0             	and    $0xfffffff0,%esp
   7:	ff 71 fc             	push   -0x4(%ecx)
   a:	55                   	push   %ebp
   b:	89 e5                	mov    %esp,%ebp
   d:	57                   	push   %edi
   e:	56                   	push   %esi
   f:	be 01 00 00 00       	mov    $0x1,%esi
  14:	53                   	push   %ebx
  15:	51                   	push   %ecx
  16:	83 ec 18             	sub    $0x18,%esp
  19:	8b 01                	mov    (%ecx),%eax
  1b:	8b 59 04             	mov    0x4(%ecx),%ebx
  1e:	89 45 e4             	mov    %eax,-0x1c(%ebp)
  21:	83 c3 04             	add    $0x4,%ebx
  int fd, i;

  if(argc <= 1){
  24:	83 f8 01             	cmp    $0x1,%eax
  27:	7e 56                	jle    7f <main+0x7f>
  29:	8d b4 26 00 00 00 00 	lea    0x0(%esi,%eiz,1),%esi
    wc(0, "");
    exit();
  }

  for(i = 1; i < argc; i++){
    if((fd = open(argv[i], 0)) < 0){
  30:	83 ec 08             	sub    $0x8,%esp
  33:	6a 00                	push   $0x0
  35:	ff 33                	push   (%ebx)
  37:	e8 d7 03 00 00       	call   413 <open>
  3c:	83 c4 10             	add    $0x10,%esp
  3f:	89 c7                	mov    %eax,%edi
  41:	85 c0                	test   %eax,%eax
  43:	78 26                	js     6b <main+0x6b>
      fprintf(2, "wc: cannot open %s\n", argv[i]);
      exit();
    }
    wc(fd, argv[i]);
  45:	83 ec 08             	sub    $0x8,%esp
  48:	ff 33                	push   (%ebx)
  for(i = 1; i < argc; i++){
  4a:	83 c6 01             	add    $0x1,%esi
  4d:	83 c3 04             	add    $0x4,%ebx
    wc(fd, argv[i]);
  50:	50                   	push   %eax
  51:	e8 4a 00 00 00       	call   a0 <wc>
    close(fd);
  56:	89 3c 24             	mov    %edi,(%esp)
  59:	e8 9d 03 00 00       	call   3fb <close>
  for(i = 1; i < argc; i++){
  5e:	83 c4 10             	add    $0x10,%esp
  61:	39 75 e4             	cmp    %esi,-0x1c(%ebp)
  64:	75 ca                	jne    30 <main+0x30>
  }
  exit();
  66:	e8 68 03 00 00       	call   3d3 <exit>
      fprintf(2, "wc: cannot open %s\n", argv[i]);
  6b:	50                   	push   %eax
  6c:	ff 33                	push   (%ebx)
  6e:	68 5b 09 00 00       	push   $0x95b
  73:	6a 02                	push   $0x2
  75:	e8 f6 06 00 00       	call   770 <fprintf>
      exit();
  7a:	e8 54 03 00 00       	call   3d3 <exit>
    wc(0, "");
  7f:	52                   	push   %edx
  80:	52                   	push   %edx
  81:	68 4d 09 00 00       	push   $0x94d
  86:	6a 00                	push   $0x0
  88:	e8 13 00 00 00       	call   a0 <wc>
    exit();
  8d:	e8 41 03 00 00       	call   3d3 <exit>
  92:	66 90                	xchg   %ax,%ax
  94:	66 90                	xchg   %ax,%ax
  96:	66 90                	xchg   %ax,%ax
  98:	66 90                	xchg   %ax,%ax
  9a:	66 90                	xchg   %ax,%ax
  9c:	66 90                	xchg   %ax,%ax
  9e:	66 90                	xchg   %ax,%ax

000000a0 <wc>:
{
  a0:	55                   	push   %ebp
  a1:	89 e5                	mov    %esp,%ebp
  a3:	57                   	push   %edi
  a4:	56                   	push   %esi
  a5:	53                   	push   %ebx
  l = w = c = 0;
  a6:	31 db                	xor    %ebx,%ebx
{
  a8:	83 ec 1c             	sub    $0x1c,%esp
  inword = 0;
  ab:	c7 45 e4 00 00 00 00 	movl   $0x0,-0x1c(%ebp)
  l = w = c = 0;
  b2:	c7 45 dc 00 00 00 00 	movl   $0x0,-0x24(%ebp)
  b9:	c7 45 e0 00 00 00 00 	movl   $0x0,-0x20(%ebp)
  while((n = read(fd, buf, sizeof(buf))) > 0){
  c0:	83 ec 04             	sub    $0x4,%esp
  c3:	68 00 02 00 00       	push   $0x200
  c8:	68 00 0a 00 00       	push   $0xa00
  cd:	ff 75 08             	push   0x8(%ebp)
  d0:	e8 16 03 00 00       	call   3eb <read>
  d5:	83 c4 10             	add    $0x10,%esp
  d8:	89 c6                	mov    %eax,%esi
  da:	85 c0                	test   %eax,%eax
  dc:	7e 62                	jle    140 <wc+0xa0>
    for(i=0; i<n; i++){
  de:	31 ff                	xor    %edi,%edi
  e0:	eb 14                	jmp    f6 <wc+0x56>
  e2:	8d b6 00 00 00 00    	lea    0x0(%esi),%esi
        inword = 0;
  e8:	c7 45 e4 00 00 00 00 	movl   $0x0,-0x1c(%ebp)
    for(i=0; i<n; i++){
  ef:	83 c7 01             	add    $0x1,%edi
  f2:	39 fe                	cmp    %edi,%esi
  f4:	74 42                	je     138 <wc+0x98>
      if(buf[i] == '\n')
  f6:	0f be 87 00 0a 00 00 	movsbl 0xa00(%edi),%eax
        l++;
  fd:	31 c9                	xor    %ecx,%ecx
  ff:	3c 0a                	cmp    $0xa,%al
 101:	0f 94 c1             	sete   %cl
      if(strchr(" \r\t\n\v", buf[i]))
 104:	83 ec 08             	sub    $0x8,%esp
 107:	50                   	push   %eax
        l++;
 108:	01 cb                	add    %ecx,%ebx
      if(strchr(" \r\t\n\v", buf[i]))
 10a:	68 38 09 00 00       	push   $0x938
 10f:	e8 4c 01 00 00       	call   260 <strchr>
 114:	83 c4 10             	add    $0x10,%esp
 117:	85 c0                	test   %eax,%eax
 119:	75 cd                	jne    e8 <wc+0x48>
      else if(!inword){
 11b:	8b 55 e4             	mov    -0x1c(%ebp),%edx
 11e:	85 d2                	test   %edx,%edx
 120:	75 cd                	jne    ef <wc+0x4f>
    for(i=0; i<n; i++){
 122:	83 c7 01             	add    $0x1,%edi
        w++;
 125:	83 45 e0 01          	addl   $0x1,-0x20(%ebp)
        inword = 1;
 129:	c7 45 e4 01 00 00 00 	movl   $0x1,-0x1c(%ebp)
    for(i=0; i<n; i++){
 130:	39 fe                	cmp    %edi,%esi
 132:	75 c2                	jne    f6 <wc+0x56>
 134:	8d 74 26 00          	lea    0x0(%esi,%eiz,1),%esi
      c++;
 138:	01 75 dc             	add    %esi,-0x24(%ebp)
 13b:	eb 83                	jmp    c0 <wc+0x20>
 13d:	8d 76 00             	lea    0x0(%esi),%esi
  if(n < 0){
 140:	75 22                	jne    164 <wc+0xc4>
  printf("%d %d %d %s\n", l, w, c, name);
 142:	83 ec 0c             	sub    $0xc,%esp
 145:	ff 75 0c             	push   0xc(%ebp)
 148:	ff 75 dc             	push   -0x24(%ebp)
 14b:	ff 75 e0             	push   -0x20(%ebp)
 14e:	53                   	push   %ebx
 14f:	68 4e 09 00 00       	push   $0x94e
 154:	e8 37 06 00 00       	call   790 <printf>
}
 159:	83 c4 20             	add    $0x20,%esp
 15c:	8d 65 f4             	lea    -0xc(%ebp),%esp
 15f:	5b                   	pop    %ebx
 160:	5e                   	pop    %esi
 161:	5f                   	pop    %edi
 162:	5d                   	pop    %ebp
 163:	c3                   	ret    
    fprintf(2, "wc: read error\n");
 164:	50                   	push   %eax
 165:	50                   	push   %eax
 166:	68 3e 09 00 00       	push   $0x93e
 16b:	6a 02                	push   $0x2
 16d:	e8 fe 05 00 00       	call   770 <fprintf>
    exit();
 172:	e8 5c 02 00 00       	call   3d3 <exit>
 177:	66 90                	xchg   %ax,%ax
 179:	66 90                	xchg   %ax,%ax
 17b:	66 90                	xchg   %ax,%ax
 17d:	66 90                	xchg   %ax,%ax
 17f:	90                   	nop

00000180 <strcpy>:
#include "user/user.h"
#include "../kernel/x86.h"

char*
strcpy(char *s, const char *t)
{
 180:	55                   	push   %ebp
  char *os;

  os = s;
  while((*s++ = *t++) != 0)
 181:	31 c0                	xor    %eax,%eax
{
 183:	89 e5                	mov    %esp,%ebp
 185:	53                   	push   %ebx
 186:	8b 4d 08             	mov    0x8(%ebp),%ecx
 189:	8b 5d 0c             	mov    0xc(%ebp),%ebx
 18c:	8d 74 26 00          	lea    0x0(%esi,%eiz,1),%esi
  while((*s++ = *t++) != 0)
 190:	0f b6 14 03          	movzbl (%ebx,%eax,1),%edx
 194:	88 14 01             	mov    %dl,(%ecx,%eax,1)
 197:	83 c0 01             	add    $0x1,%eax
 19a:	84 d2                	test   %dl,%dl
 19c:	75 f2                	jne    190 <strcpy+0x10>
    ;
  return os;
}
 19e:	8b 5d fc             	mov    -0x4(%ebp),%ebx
 1a1:	89 c8                	mov    %ecx,%eax
 1a3:	c9                   	leave  
 1a4:	c3                   	ret    
 1a5:	8d b4 26 00 00 00 00 	lea    0x0(%esi,%eiz,1),%esi
 1ac:	8d 74 26 00          	lea    0x0(%esi,%eiz,1),%esi

000001b0 <strcmp>:

int
strcmp(const char *p, const char *q)
{
 1b0:	55                   	push   %ebp
 1b1:	89 e5                	mov    %esp,%ebp
 1b3:	53                   	push   %ebx
 1b4:	8b 55 08             	mov    0x8(%ebp),%edx
 1b7:	8b 4d 0c             	mov    0xc(%ebp),%ecx
  while(*p && *p == *q)
 1ba:	0f b6 02             	movzbl (%edx),%eax
 1bd:	84 c0                	test   %al,%al
 1bf:	75 17                	jne    1d8 <strcmp+0x28>
 1c1:	eb 3a                	jmp    1fd <strcmp+0x4d>
 1c3:	8d 74 26 00          	lea    0x0(%esi,%eiz,1),%esi
 1c7:	90                   	nop
 1c8:	0f b6 42 01          	movzbl 0x1(%edx),%eax
    p++, q++;
 1cc:	83 c2 01             	add    $0x1,%edx
 1cf:	8d 59 01             	lea    0x1(%ecx),%ebx
  while(*p && *p == *q)
 1d2:	84 c0                	test   %al,%al
 1d4:	74 1a                	je     1f0 <strcmp+0x40>
    p++, q++;
 1d6:	89 d9                	mov    %ebx,%ecx
  while(*p && *p == *q)
 1d8:	0f b6 19             	movzbl (%ecx),%ebx
 1db:	38 c3                	cmp    %al,%bl
 1dd:	74 e9                	je     1c8 <strcmp+0x18>
  return (uchar)*p - (uchar)*q;
 1df:	29 d8                	sub    %ebx,%eax
}
 1e1:	8b 5d fc             	mov    -0x4(%ebp),%ebx
 1e4:	c9                   	leave  
 1e5:	c3                   	ret    
 1e6:	8d b4 26 00 00 00 00 	lea    0x0(%esi,%eiz,1),%esi
 1ed:	8d 76 00             	lea    0x0(%esi),%esi
  return (uchar)*p - (uchar)*q;
 1f0:	0f b6 59 01          	movzbl 0x1(%ecx),%ebx
 1f4:	31 c0                	xor    %eax,%eax
 1f6:	29 d8                	sub    %ebx,%eax
}
 1f8:	8b 5d fc             	mov    -0x4(%ebp),%ebx
 1fb:	c9                   	leave  
 1fc:	c3                   	ret    
  return (uchar)*p - (uchar)*q;
 1fd:	0f b6 19             	movzbl (%ecx),%ebx
 200:	31 c0                	xor    %eax,%eax
 202:	eb db                	jmp    1df <strcmp+0x2f>
 204:	8d b4 26 00 00 00 00 	lea    0x0(%esi,%eiz,1),%esi
 20b:	8d 74 26 00          	lea    0x0(%esi,%eiz,1),%esi
 20f:	90                   	nop

00000210 <strlen>:

uint
strlen(const char *s)
{
 210:	55                   	push   %ebp
 211:	89 e5                	mov    %esp,%ebp
 213:	8b 55 08             	mov    0x8(%ebp),%edx
  int n;

  for(n = 0; s[n]; n++)
 216:	80 3a 00             	cmpb   $0x0,(%edx)
 219:	74 15                	je     230 <strlen+0x20>
 21b:	31 c0                	xor    %eax,%eax
 21d:	8d 76 00             	lea    0x0(%esi),%esi
 220:	83 c0 01             	add    $0x1,%eax
 223:	80 3c 02 00          	cmpb   $0x0,(%edx,%eax,1)
 227:	89 c1                	mov    %eax,%ecx
 229:	75 f5                	jne    220 <strlen+0x10>
    ;
  return n;
}
 22b:	89 c8                	mov    %ecx,%eax
 22d:	5d                   	pop    %ebp
 22e:	c3                   	ret    
 22f:	90                   	nop
  for(n = 0; s[n]; n++)
 230:	31 c9                	xor    %ecx,%ecx
}
 232:	5d                   	pop    %ebp
 233:	89 c8                	mov    %ecx,%eax
 235:	c3                   	ret    
 236:	8d b4 26 00 00 00 00 	lea    0x0(%esi,%eiz,1),%esi
 23d:	8d 76 00             	lea    0x0(%esi),%esi

00000240 <memset>:

void*
memset(void *dst, int c, uint n)
{
 240:	55                   	push   %ebp
 241:	89 e5                	mov    %esp,%ebp
 243:	57                   	push   %edi
 244:	8b 55 08             	mov    0x8(%ebp),%edx
}

static inline void
stosb(void *addr, int data, int cnt)
{
  asm volatile("cld; rep stosb" :
 247:	8b 4d 10             	mov    0x10(%ebp),%ecx
 24a:	8b 45 0c             	mov    0xc(%ebp),%eax
 24d:	89 d7                	mov    %edx,%edi
 24f:	fc                   	cld    
 250:	f3 aa                	rep stos %al,%es:(%edi)
  stosb(dst, c, n);
  return dst;
}
 252:	8b 7d fc             	mov    -0x4(%ebp),%edi
 255:	89 d0                	mov    %edx,%eax
 257:	c9                   	leave  
 258:	c3                   	ret    
 259:	8d b4 26 00 00 00 00 	lea    0x0(%esi,%eiz,1),%esi

00000260 <strchr>:

char*
strchr(const char *s, char c)
{
 260:	55                   	push   %ebp
 261:	89 e5                	mov    %esp,%ebp
 263:	8b 45 08             	mov    0x8(%ebp),%eax
 266:	0f b6 4d 0c          	movzbl 0xc(%ebp),%ecx
  for(; *s; s++)
 26a:	0f b6 10             	movzbl (%eax),%edx
 26d:	84 d2                	test   %dl,%dl
 26f:	75 12                	jne    283 <strchr+0x23>
 271:	eb 1d                	jmp    290 <strchr+0x30>
 273:	8d 74 26 00          	lea    0x0(%esi,%eiz,1),%esi
 277:	90                   	nop
 278:	0f b6 50 01          	movzbl 0x1(%eax),%edx
 27c:	83 c0 01             	add    $0x1,%eax
 27f:	84 d2                	test   %dl,%dl
 281:	74 0d                	je     290 <strchr+0x30>
    if(*s == c)
 283:	38 d1                	cmp    %dl,%cl
 285:	75 f1                	jne    278 <strchr+0x18>
      return (char*)s;
  return 0;
}
 287:	5d                   	pop    %ebp
 288:	c3                   	ret    
 289:	8d b4 26 00 00 00 00 	lea    0x0(%esi,%eiz,1),%esi
  return 0;
 290:	31 c0                	xor    %eax,%eax
}
 292:	5d                   	pop    %ebp
 293:	c3                   	ret    
 294:	8d b4 26 00 00 00 00 	lea    0x0(%esi,%eiz,1),%esi
 29b:	8d 74 26 00          	lea    0x0(%esi,%eiz,1),%esi
 29f:	90                   	nop

000002a0 <gets>:

char*
gets(char *buf, int max)
{
 2a0:	55                   	push   %ebp
 2a1:	89 e5                	mov    %esp,%ebp
 2a3:	57                   	push   %edi
 2a4:	56                   	push   %esi
  int i, cc;
  char c;

  for(i=0; i+1 < max; ){
    cc = read(0, &c, 1);
 2a5:	8d 7d e7             	lea    -0x19(%ebp),%edi
{
 2a8:	53                   	push   %ebx
  for(i=0; i+1 < max; ){
 2a9:	31 db                	xor    %ebx,%ebx
{
 2ab:	83 ec 1c             	sub    $0x1c,%esp
  for(i=0; i+1 < max; ){
 2ae:	eb 27                	jmp    2d7 <gets+0x37>
    cc = read(0, &c, 1);
 2b0:	83 ec 04             	sub    $0x4,%esp
 2b3:	6a 01                	push   $0x1
 2b5:	57                   	push   %edi
 2b6:	6a 00                	push   $0x0
 2b8:	e8 2e 01 00 00       	call   3eb <read>
    if(cc < 1)
 2bd:	83 c4 10             	add    $0x10,%esp
 2c0:	85 c0                	test   %eax,%eax
 2c2:	7e 1d                	jle    2e1 <gets+0x41>
      break;
    buf[i++] = c;
 2c4:	0f b6 45 e7          	movzbl -0x19(%ebp),%eax
 2c8:	8b 55 08             	mov    0x8(%ebp),%edx
 2cb:	88 44 1a ff          	mov    %al,-0x1(%edx,%ebx,1)
    if(c == '\n' || c == '\r')
 2cf:	3c 0a                	cmp    $0xa,%al
 2d1:	74 1d                	je     2f0 <gets+0x50>
 2d3:	3c 0d                	cmp    $0xd,%al
 2d5:	74 19                	je     2f0 <gets+0x50>
  for(i=0; i+1 < max; ){
 2d7:	89 de                	mov    %ebx,%esi
 2d9:	83 c3 01             	add    $0x1,%ebx
 2dc:	3b 5d 0c             	cmp    0xc(%ebp),%ebx
 2df:	7c cf                	jl     2b0 <gets+0x10>
      break;
  }
  buf[i] = '\0';
 2e1:	8b 45 08             	mov    0x8(%ebp),%eax
 2e4:	c6 04 30 00          	movb   $0x0,(%eax,%esi,1)
  return buf;
}
 2e8:	8d 65 f4             	lea    -0xc(%ebp),%esp
 2eb:	5b                   	pop    %ebx
 2ec:	5e                   	pop    %esi
 2ed:	5f                   	pop    %edi
 2ee:	5d                   	pop    %ebp
 2ef:	c3                   	ret    
  buf[i] = '\0';
 2f0:	8b 45 08             	mov    0x8(%ebp),%eax
 2f3:	89 de                	mov    %ebx,%esi
 2f5:	c6 04 30 00          	movb   $0x0,(%eax,%esi,1)
}
 2f9:	8d 65 f4             	lea    -0xc(%ebp),%esp
 2fc:	5b                   	pop    %ebx
 2fd:	5e                   	pop    %esi
 2fe:	5f                   	pop    %edi
 2ff:	5d                   	pop    %ebp
 300:	c3                   	ret    
 301:	8d b4 26 00 00 00 00 	lea    0x0(%esi,%eiz,1),%esi
 308:	8d b4 26 00 00 00 00 	lea    0x0(%esi,%eiz,1),%esi
 30f:	90                   	nop

00000310 <stat>:

int
stat(const char *n, struct stat *st)
{
 310:	55                   	push   %ebp
 311:	89 e5                	mov    %esp,%ebp
 313:	56                   	push   %esi
 314:	53                   	push   %ebx
  int fd;
  int r;

  fd = open(n, O_RDONLY);
 315:	83 ec 08             	sub    $0x8,%esp
 318:	6a 00                	push   $0x0
 31a:	ff 75 08             	push   0x8(%ebp)
 31d:	e8 f1 00 00 00       	call   413 <open>
  if(fd < 0)
 322:	83 c4 10             	add    $0x10,%esp
 325:	85 c0                	test   %eax,%eax
 327:	78 27                	js     350 <stat+0x40>
    return -1;
  r = fstat(fd, st);
 329:	83 ec 08             	sub    $0x8,%esp
 32c:	ff 75 0c             	push   0xc(%ebp)
 32f:	89 c3                	mov    %eax,%ebx
 331:	50                   	push   %eax
 332:	e8 f4 00 00 00       	call   42b <fstat>
  close(fd);
 337:	89 1c 24             	mov    %ebx,(%esp)
  r = fstat(fd, st);
 33a:	89 c6                	mov    %eax,%esi
  close(fd);
 33c:	e8 ba 00 00 00       	call   3fb <close>
  return r;
 341:	83 c4 10             	add    $0x10,%esp
}
 344:	8d 65 f8             	lea    -0x8(%ebp),%esp
 347:	89 f0                	mov    %esi,%eax
 349:	5b                   	pop    %ebx
 34a:	5e                   	pop    %esi
 34b:	5d                   	pop    %ebp
 34c:	c3                   	ret    
 34d:	8d 76 00             	lea    0x0(%esi),%esi
    return -1;
 350:	be ff ff ff ff       	mov    $0xffffffff,%esi
 355:	eb ed                	jmp    344 <stat+0x34>
 357:	8d b4 26 00 00 00 00 	lea    0x0(%esi,%eiz,1),%esi
 35e:	66 90                	xchg   %ax,%ax

00000360 <atoi>:

int
atoi(const char *s)
{
 360:	55                   	push   %ebp
 361:	89 e5                	mov    %esp,%ebp
 363:	53                   	push   %ebx
 364:	8b 55 08             	mov    0x8(%ebp),%edx
  int n;

  n = 0;
  while('0' <= *s && *s <= '9')
 367:	0f be 02             	movsbl (%edx),%eax
 36a:	8d 48 d0             	lea    -0x30(%eax),%ecx
 36d:	80 f9 09             	cmp    $0x9,%cl
  n = 0;
 370:	b9 00 00 00 00       	mov    $0x0,%ecx
  while('0' <= *s && *s <= '9')
 375:	77 1e                	ja     395 <atoi+0x35>
 377:	8d b4 26 00 00 00 00 	lea    0x0(%esi,%eiz,1),%esi
 37e:	66 90                	xchg   %ax,%ax
    n = n*10 + *s++ - '0';
 380:	83 c2 01             	add    $0x1,%edx
 383:	8d 0c 89             	lea    (%ecx,%ecx,4),%ecx
 386:	8d 4c 48 d0          	lea    -0x30(%eax,%ecx,2),%ecx
  while('0' <= *s && *s <= '9')
 38a:	0f be 02             	movsbl (%edx),%eax
 38d:	8d 58 d0             	lea    -0x30(%eax),%ebx
 390:	80 fb 09             	cmp    $0x9,%bl
 393:	76 eb                	jbe    380 <atoi+0x20>
  return n;
}
 395:	8b 5d fc             	mov    -0x4(%ebp),%ebx
 398:	89 c8                	mov    %ecx,%eax
 39a:	c9                   	leave  
 39b:	c3                   	ret    
 39c:	8d 74 26 00          	lea    0x0(%esi,%eiz,1),%esi

000003a0 <memmove>:

void*
memmove(void *vdst, const void *vsrc, int n)
{
 3a0:	55                   	push   %ebp
 3a1:	89 e5                	mov    %esp,%ebp
 3a3:	57                   	push   %edi
 3a4:	8b 45 10             	mov    0x10(%ebp),%eax
 3a7:	8b 55 08             	mov    0x8(%ebp),%edx
 3aa:	56                   	push   %esi
 3ab:	8b 75 0c             	mov    0xc(%ebp),%esi
  char *dst;
  const char *src;

  dst = vdst;
  src = vsrc;
  while(n-- > 0)
 3ae:	85 c0                	test   %eax,%eax
 3b0:	7e 13                	jle    3c5 <memmove+0x25>
 3b2:	01 d0                	add    %edx,%eax
  dst = vdst;
 3b4:	89 d7                	mov    %edx,%edi
 3b6:	8d b4 26 00 00 00 00 	lea    0x0(%esi,%eiz,1),%esi
 3bd:	8d 76 00             	lea    0x0(%esi),%esi
    *dst++ = *src++;
 3c0:	a4                   	movsb  %ds:(%esi),%es:(%edi)
  while(n-- > 0)
 3c1:	39 f8                	cmp    %edi,%eax
 3c3:	75 fb                	jne    3c0 <memmove+0x20>
  return vdst;
}
 3c5:	5e                   	pop    %esi
 3c6:	89 d0                	mov    %edx,%eax
 3c8:	5f                   	pop    %edi
 3c9:	5d                   	pop    %ebp
 3ca:	c3                   	ret    

000003cb <fork>:
  name: \
    movl $SYS_ ## name, %eax; \
    int $T_SYSCALL; \
    ret

SYSCALL(fork)
 3cb:	b8 01 00 00 00       	mov    $0x1,%eax
 3d0:	cd 40                	int    $0x40
 3d2:	c3                   	ret    

000003d3 <exit>:
SYSCALL(exit)
 3d3:	b8 02 00 00 00       	mov    $0x2,%eax
 3d8:	cd 40                	int    $0x40
 3da:	c3                   	ret    

000003db <wait>:
SYSCALL(wait)
 3db:	b8 03 00 00 00       	mov    $0x3,%eax
 3e0:	cd 40                	int    $0x40
 3e2:	c3                   	ret    

000003e3 <pipe>:
SYSCALL(pipe)
 3e3:	b8 04 00 00 00       	mov    $0x4,%eax
 3e8:	cd 40                	int    $0x40
 3ea:	c3                   	ret    

000003eb <read>:
SYSCALL(read)
 3eb:	b8 05 00 00 00       	mov    $0x5,%eax
 3f0:	cd 40                	int    $0x40
 3f2:	c3                   	ret    

000003f3 <write>:
SYSCALL(write)
 3f3:	b8 10 00 00 00       	mov    $0x10,%eax
 3f8:	cd 40                	int    $0x40
 3fa:	c3                   	ret    

000003fb <close>:
SYSCALL(close)
 3fb:	b8 15 00 00 00       	mov    $0x15,%eax
 400:	cd 40                	int    $0x40
 402:	c3                   	ret    

00000403 <kill>:
SYSCALL(kill)
 403:	b8 06 00 00 00       	mov    $0x6,%eax
 408:	cd 40                	int    $0x40
 40a:	c3                   	ret    

0000040b <exec>:
SYSCALL(exec)
 40b:	b8 07 00 00 00       	mov    $0x7,%eax
 410:	cd 40                	int    $0x40
 412:	c3                   	ret    

00000413 <open>:
SYSCALL(open)
 413:	b8 0f 00 00 00       	mov    $0xf,%eax
 418:	cd 40                	int    $0x40
 41a:	c3                   	ret    

0000041b <mknod>:
SYSCALL(mknod)
 41b:	b8 11 00 00 00       	mov    $0x11,%eax
 420:	cd 40                	int    $0x40
 422:	c3                   	ret    

00000423 <unlink>:
SYSCALL(unlink)
 423:	b8 12 00 00 00       	mov    $0x12,%eax
 428:	cd 40                	int    $0x40
 42a:	c3                   	ret    

0000042b <fstat>:
SYSCALL(fstat)
 42b:	b8 08 00 00 00       	mov    $0x8,%eax
 430:	cd 40                	int    $0x40
 432:	c3                   	ret    

00000433 <link>:
SYSCALL(link)
 433:	b8 13 00 00 00       	mov    $0x13,%eax
 438:	cd 40                	int    $0x40
 43a:	c3                   	ret    

0000043b <mkdir>:
SYSCALL(mkdir)
 43b:	b8 14 00 00 00       	mov    $0x14,%eax
 440:	cd 40                	int    $0x40
 442:	c3                   	ret    

00000443 <chdir>:
SYSCALL(chdir)
 443:	b8 09 00 00 00       	mov    $0x9,%eax
 448:	cd 40                	int    $0x40
 44a:	c3                   	ret    

0000044b <dup>:
SYSCALL(dup)
 44b:	b8 0a 00 00 00       	mov    $0xa,%eax
 450:	cd 40                	int    $0x40
 452:	c3                   	ret    

00000453 <getpid>:
SYSCALL(getpid)
 453:	b8 0b 00 00 00       	mov    $0xb,%eax
 458:	cd 40                	int    $0x40
 45a:	c3                   	ret    

0000045b <sbrk>:
SYSCALL(sbrk)
 45b:	b8 0c 00 00 00       	mov    $0xc,%eax
 460:	cd 40                	int    $0x40
 462:	c3                   	ret    

00000463 <sleep>:
SYSCALL(sleep)
 463:	b8 0d 00 00 00       	mov    $0xd,%eax
 468:	cd 40                	int    $0x40
 46a:	c3                   	ret    

0000046b <uptime>:
SYSCALL(uptime)
 46b:	b8 0e 00 00 00       	mov    $0xe,%eax
 470:	cd 40                	int    $0x40
 472:	c3                   	ret    

00000473 <cpuhalt>:
SYSCALL(cpuhalt)
 473:	b8 16 00 00 00       	mov    $0x16,%eax
 478:	cd 40                	int    $0x40
 47a:	c3                   	ret    
 47b:	66 90                	xchg   %ax,%ax
 47d:	66 90                	xchg   %ax,%ax
 47f:	90                   	nop

00000480 <printint>:
    putc(fd, digits[x >> (sizeof(uint) * 8 - 4)]);
}

static void
printint(int fd, int xx, int base, int sgn)
{
 480:	55                   	push   %ebp
 481:	89 e5                	mov    %esp,%ebp
 483:	57                   	push   %edi
 484:	56                   	push   %esi
 485:	53                   	push   %ebx
 486:	83 ec 3c             	sub    $0x3c,%esp
 489:	89 4d c4             	mov    %ecx,-0x3c(%ebp)
  uint x;

  neg = 0;
  if(sgn && xx < 0){
    neg = 1;
    x = -xx;
 48c:	89 d1                	mov    %edx,%ecx
{
 48e:	89 45 b8             	mov    %eax,-0x48(%ebp)
  if(sgn && xx < 0){
 491:	85 d2                	test   %edx,%edx
 493:	0f 89 7f 00 00 00    	jns    518 <printint+0x98>
 499:	f6 45 08 01          	testb  $0x1,0x8(%ebp)
 49d:	74 79                	je     518 <printint+0x98>
    neg = 1;
 49f:	c7 45 bc 01 00 00 00 	movl   $0x1,-0x44(%ebp)
    x = -xx;
 4a6:	f7 d9                	neg    %ecx
  } else {
    x = xx;
  }

  i = 0;
 4a8:	31 db                	xor    %ebx,%ebx
 4aa:	8d 75 d7             	lea    -0x29(%ebp),%esi
 4ad:	8d 76 00             	lea    0x0(%esi),%esi
  do{
    buf[i++] = digits[x % base];
 4b0:	89 c8                	mov    %ecx,%eax
 4b2:	31 d2                	xor    %edx,%edx
 4b4:	89 cf                	mov    %ecx,%edi
 4b6:	f7 75 c4             	divl   -0x3c(%ebp)
 4b9:	0f b6 92 d0 09 00 00 	movzbl 0x9d0(%edx),%edx
 4c0:	89 45 c0             	mov    %eax,-0x40(%ebp)
 4c3:	89 d8                	mov    %ebx,%eax
 4c5:	8d 5b 01             	lea    0x1(%ebx),%ebx
  }while((x /= base) != 0);
 4c8:	8b 4d c0             	mov    -0x40(%ebp),%ecx
    buf[i++] = digits[x % base];
 4cb:	88 14 1e             	mov    %dl,(%esi,%ebx,1)
  }while((x /= base) != 0);
 4ce:	39 7d c4             	cmp    %edi,-0x3c(%ebp)
 4d1:	76 dd                	jbe    4b0 <printint+0x30>
  if(neg)
 4d3:	8b 4d bc             	mov    -0x44(%ebp),%ecx
 4d6:	85 c9                	test   %ecx,%ecx
 4d8:	74 0c                	je     4e6 <printint+0x66>
    buf[i++] = '-';
 4da:	c6 44 1d d8 2d       	movb   $0x2d,-0x28(%ebp,%ebx,1)
    buf[i++] = digits[x % base];
 4df:	89 d8                	mov    %ebx,%eax
    buf[i++] = '-';
 4e1:	ba 2d 00 00 00       	mov    $0x2d,%edx

  while(--i >= 0)
 4e6:	8b 7d b8             	mov    -0x48(%ebp),%edi
 4e9:	8d 5c 05 d7          	lea    -0x29(%ebp,%eax,1),%ebx
 4ed:	eb 07                	jmp    4f6 <printint+0x76>
 4ef:	90                   	nop
    putc(fd, buf[i]);
 4f0:	0f b6 13             	movzbl (%ebx),%edx
 4f3:	83 eb 01             	sub    $0x1,%ebx
  write(fd, &c, 1);
 4f6:	83 ec 04             	sub    $0x4,%esp
 4f9:	88 55 d7             	mov    %dl,-0x29(%ebp)
 4fc:	6a 01                	push   $0x1
 4fe:	56                   	push   %esi
 4ff:	57                   	push   %edi
 500:	e8 ee fe ff ff       	call   3f3 <write>
  while(--i >= 0)
 505:	83 c4 10             	add    $0x10,%esp
 508:	39 de                	cmp    %ebx,%esi
 50a:	75 e4                	jne    4f0 <printint+0x70>
}
 50c:	8d 65 f4             	lea    -0xc(%ebp),%esp
 50f:	5b                   	pop    %ebx
 510:	5e                   	pop    %esi
 511:	5f                   	pop    %edi
 512:	5d                   	pop    %ebp
 513:	c3                   	ret    
 514:	8d 74 26 00          	lea    0x0(%esi,%eiz,1),%esi
  neg = 0;
 518:	c7 45 bc 00 00 00 00 	movl   $0x0,-0x44(%ebp)
 51f:	eb 87                	jmp    4a8 <printint+0x28>
 521:	8d b4 26 00 00 00 00 	lea    0x0(%esi,%eiz,1),%esi
 528:	8d b4 26 00 00 00 00 	lea    0x0(%esi,%eiz,1),%esi
 52f:	90                   	nop

00000530 <vprintf>:
static void vprintf(int fd, const char *fmt, va_list ap)
{
 530:	55                   	push   %ebp
 531:	89 e5                	mov    %esp,%ebp
 533:	57                   	push   %edi
 534:	56                   	push   %esi
 535:	53                   	push   %ebx
 536:	83 ec 2c             	sub    $0x2c,%esp
 539:	89 4d d4             	mov    %ecx,-0x2c(%ebp)
  char *s;
  int c, i, state;

  state = 0;
  for(i = 0; fmt[i]; i++){
 53c:	0f b6 0a             	movzbl (%edx),%ecx
 53f:	84 c9                	test   %cl,%cl
 541:	74 6c                	je     5af <vprintf+0x7f>
 543:	89 c6                	mov    %eax,%esi
 545:	8d 5a 01             	lea    0x1(%edx),%ebx
 548:	31 ff                	xor    %edi,%edi
 54a:	eb 28                	jmp    574 <vprintf+0x44>
 54c:	8d 74 26 00          	lea    0x0(%esi,%eiz,1),%esi
    c = fmt[i] & 0xff;
    if(state == 0){
      if(c == '%'){
 550:	83 f8 25             	cmp    $0x25,%eax
 553:	74 4b                	je     5a0 <vprintf+0x70>
  write(fd, &c, 1);
 555:	83 ec 04             	sub    $0x4,%esp
 558:	8d 45 e7             	lea    -0x19(%ebp),%eax
 55b:	88 4d e7             	mov    %cl,-0x19(%ebp)
 55e:	6a 01                	push   $0x1
 560:	50                   	push   %eax
 561:	56                   	push   %esi
 562:	e8 8c fe ff ff       	call   3f3 <write>
        state = '%';
      } else {
        putc(fd, c);
 567:	83 c4 10             	add    $0x10,%esp
  for(i = 0; fmt[i]; i++){
 56a:	0f b6 0b             	movzbl (%ebx),%ecx
 56d:	83 c3 01             	add    $0x1,%ebx
 570:	84 c9                	test   %cl,%cl
 572:	74 3b                	je     5af <vprintf+0x7f>
    c = fmt[i] & 0xff;
 574:	0f b6 c1             	movzbl %cl,%eax
    if(state == 0){
 577:	85 ff                	test   %edi,%edi
 579:	74 d5                	je     550 <vprintf+0x20>
      }
    } else if(state == '%'){
 57b:	83 ff 25             	cmp    $0x25,%edi
 57e:	75 ea                	jne    56a <vprintf+0x3a>
      if(c == 'd'){
 580:	83 f8 25             	cmp    $0x25,%eax
 583:	0f 84 cf 01 00 00    	je     758 <vprintf+0x228>
 589:	83 e8 63             	sub    $0x63,%eax
 58c:	83 f8 15             	cmp    $0x15,%eax
 58f:	77 2f                	ja     5c0 <vprintf+0x90>
 591:	ff 24 85 78 09 00 00 	jmp    *0x978(,%eax,4)
 598:	8d b4 26 00 00 00 00 	lea    0x0(%esi,%eiz,1),%esi
 59f:	90                   	nop
  for(i = 0; fmt[i]; i++){
 5a0:	0f b6 0b             	movzbl (%ebx),%ecx
 5a3:	83 c3 01             	add    $0x1,%ebx
        state = '%';
 5a6:	bf 25 00 00 00       	mov    $0x25,%edi
  for(i = 0; fmt[i]; i++){
 5ab:	84 c9                	test   %cl,%cl
 5ad:	75 c5                	jne    574 <vprintf+0x44>
        putc(fd, c);
      }
      state = 0;
    }
  }
}
 5af:	8d 65 f4             	lea    -0xc(%ebp),%esp
 5b2:	5b                   	pop    %ebx
 5b3:	5e                   	pop    %esi
 5b4:	5f                   	pop    %edi
 5b5:	5d                   	pop    %ebp
 5b6:	c3                   	ret    
 5b7:	8d b4 26 00 00 00 00 	lea    0x0(%esi,%eiz,1),%esi
 5be:	66 90                	xchg   %ax,%ax
  write(fd, &c, 1);
 5c0:	83 ec 04             	sub    $0x4,%esp
 5c3:	8d 45 e7             	lea    -0x19(%ebp),%eax
 5c6:	88 4d d0             	mov    %cl,-0x30(%ebp)
 5c9:	6a 01                	push   $0x1
 5cb:	50                   	push   %eax
 5cc:	56                   	push   %esi
 5cd:	c6 45 e7 25          	movb   $0x25,-0x19(%ebp)
 5d1:	e8 1d fe ff ff       	call   3f3 <write>
        putc(fd, c);
 5d6:	0f b6 4d d0          	movzbl -0x30(%ebp),%ecx
  write(fd, &c, 1);
 5da:	83 c4 0c             	add    $0xc,%esp
 5dd:	88 4d e7             	mov    %cl,-0x19(%ebp)
 5e0:	8d 45 e7             	lea    -0x19(%ebp),%eax
 5e3:	6a 01                	push   $0x1
      state = 0;
 5e5:	31 ff                	xor    %edi,%edi
  write(fd, &c, 1);
 5e7:	50                   	push   %eax
 5e8:	56                   	push   %esi
 5e9:	e8 05 fe ff ff       	call   3f3 <write>
        putc(fd, c);
 5ee:	83 c4 10             	add    $0x10,%esp
 5f1:	e9 74 ff ff ff       	jmp    56a <vprintf+0x3a>
 5f6:	8d b4 26 00 00 00 00 	lea    0x0(%esi,%eiz,1),%esi
 5fd:	8d 76 00             	lea    0x0(%esi),%esi
        putc(fd, va_arg(ap, uint));
 600:	8b 45 d4             	mov    -0x2c(%ebp),%eax
  write(fd, &c, 1);
 603:	83 ec 04             	sub    $0x4,%esp
        putc(fd, va_arg(ap, uint));
 606:	8d 78 04             	lea    0x4(%eax),%edi
 609:	8b 00                	mov    (%eax),%eax
  write(fd, &c, 1);
 60b:	6a 01                	push   $0x1
        putc(fd, va_arg(ap, uint));
 60d:	88 45 e7             	mov    %al,-0x19(%ebp)
  write(fd, &c, 1);
 610:	8d 45 e7             	lea    -0x19(%ebp),%eax
 613:	50                   	push   %eax
 614:	56                   	push   %esi
 615:	e8 d9 fd ff ff       	call   3f3 <write>
        putc(fd, va_arg(ap, uint));
 61a:	89 7d d4             	mov    %edi,-0x2c(%ebp)
 61d:	83 c4 10             	add    $0x10,%esp
      state = 0;
 620:	31 ff                	xor    %edi,%edi
 622:	e9 43 ff ff ff       	jmp    56a <vprintf+0x3a>
 627:	8d b4 26 00 00 00 00 	lea    0x0(%esi,%eiz,1),%esi
 62e:	66 90                	xchg   %ax,%ax
        printint(fd, va_arg(ap, int), 10, 1);
 630:	83 ec 0c             	sub    $0xc,%esp
 633:	8b 45 d4             	mov    -0x2c(%ebp),%eax
 636:	b9 0a 00 00 00       	mov    $0xa,%ecx
 63b:	6a 01                	push   $0x1
 63d:	8d 78 04             	lea    0x4(%eax),%edi
        printint(fd, va_arg(ap, int), 16, 0);
 640:	8b 10                	mov    (%eax),%edx
 642:	89 f0                	mov    %esi,%eax
 644:	e8 37 fe ff ff       	call   480 <printint>
 649:	89 7d d4             	mov    %edi,-0x2c(%ebp)
 64c:	83 c4 10             	add    $0x10,%esp
      state = 0;
 64f:	31 ff                	xor    %edi,%edi
 651:	e9 14 ff ff ff       	jmp    56a <vprintf+0x3a>
 656:	8d b4 26 00 00 00 00 	lea    0x0(%esi,%eiz,1),%esi
 65d:	8d 76 00             	lea    0x0(%esi),%esi
        printint(fd, va_arg(ap, uint), 10, 0);
 660:	8b 45 d4             	mov    -0x2c(%ebp),%eax
 663:	83 ec 0c             	sub    $0xc,%esp
 666:	b9 0a 00 00 00       	mov    $0xa,%ecx
 66b:	6a 00                	push   $0x0
 66d:	8d 78 04             	lea    0x4(%eax),%edi
 670:	eb ce                	jmp    640 <vprintf+0x110>
 672:	8d b6 00 00 00 00    	lea    0x0(%esi),%esi
        printptr(fd, va_arg(ap, uint));
 678:	8b 45 d4             	mov    -0x2c(%ebp),%eax
  write(fd, &c, 1);
 67b:	83 ec 04             	sub    $0x4,%esp
 67e:	c6 45 e7 30          	movb   $0x30,-0x19(%ebp)
        printptr(fd, va_arg(ap, uint));
 682:	8b 38                	mov    (%eax),%edi
 684:	8d 50 04             	lea    0x4(%eax),%edx
  write(fd, &c, 1);
 687:	8d 45 e7             	lea    -0x19(%ebp),%eax
 68a:	6a 01                	push   $0x1
 68c:	50                   	push   %eax
 68d:	56                   	push   %esi
        printptr(fd, va_arg(ap, uint));
 68e:	89 55 d4             	mov    %edx,-0x2c(%ebp)
  write(fd, &c, 1);
 691:	e8 5d fd ff ff       	call   3f3 <write>
 696:	83 c4 0c             	add    $0xc,%esp
 699:	8d 45 e7             	lea    -0x19(%ebp),%eax
 69c:	c6 45 e7 78          	movb   $0x78,-0x19(%ebp)
 6a0:	6a 01                	push   $0x1
 6a2:	50                   	push   %eax
 6a3:	56                   	push   %esi
 6a4:	e8 4a fd ff ff       	call   3f3 <write>
  putc(fd, 'x');
 6a9:	b8 08 00 00 00       	mov    $0x8,%eax
 6ae:	89 5d d0             	mov    %ebx,-0x30(%ebp)
 6b1:	83 c4 10             	add    $0x10,%esp
 6b4:	89 fb                	mov    %edi,%ebx
 6b6:	89 c7                	mov    %eax,%edi
 6b8:	8d b4 26 00 00 00 00 	lea    0x0(%esi,%eiz,1),%esi
 6bf:	90                   	nop
    putc(fd, digits[x >> (sizeof(uint) * 8 - 4)]);
 6c0:	89 d8                	mov    %ebx,%eax
  write(fd, &c, 1);
 6c2:	83 ec 04             	sub    $0x4,%esp
  for (i = 0; i < (sizeof(uint) * 2); i++, x <<= 4)
 6c5:	c1 e3 04             	shl    $0x4,%ebx
    putc(fd, digits[x >> (sizeof(uint) * 8 - 4)]);
 6c8:	c1 e8 1c             	shr    $0x1c,%eax
  write(fd, &c, 1);
 6cb:	6a 01                	push   $0x1
 6cd:	0f b6 80 d0 09 00 00 	movzbl 0x9d0(%eax),%eax
 6d4:	88 45 e7             	mov    %al,-0x19(%ebp)
 6d7:	8d 45 e7             	lea    -0x19(%ebp),%eax
 6da:	50                   	push   %eax
 6db:	56                   	push   %esi
 6dc:	e8 12 fd ff ff       	call   3f3 <write>
  for (i = 0; i < (sizeof(uint) * 2); i++, x <<= 4)
 6e1:	83 c4 10             	add    $0x10,%esp
 6e4:	83 ef 01             	sub    $0x1,%edi
 6e7:	75 d7                	jne    6c0 <vprintf+0x190>
        printptr(fd, va_arg(ap, uint));
 6e9:	8b 5d d0             	mov    -0x30(%ebp),%ebx
      state = 0;
 6ec:	31 ff                	xor    %edi,%edi
 6ee:	e9 77 fe ff ff       	jmp    56a <vprintf+0x3a>
 6f3:	8d 74 26 00          	lea    0x0(%esi,%eiz,1),%esi
 6f7:	90                   	nop
        s = va_arg(ap, char*);
 6f8:	8b 45 d4             	mov    -0x2c(%ebp),%eax
 6fb:	8b 38                	mov    (%eax),%edi
 6fd:	8d 50 04             	lea    0x4(%eax),%edx
 700:	89 55 d4             	mov    %edx,-0x2c(%ebp)
        if(s == 0)
 703:	85 ff                	test   %edi,%edi
 705:	74 5c                	je     763 <vprintf+0x233>
        while(*s != 0){
 707:	0f b6 07             	movzbl (%edi),%eax
 70a:	84 c0                	test   %al,%al
 70c:	74 21                	je     72f <vprintf+0x1ff>
 70e:	66 90                	xchg   %ax,%ax
  write(fd, &c, 1);
 710:	83 ec 04             	sub    $0x4,%esp
 713:	88 45 e7             	mov    %al,-0x19(%ebp)
 716:	8d 45 e7             	lea    -0x19(%ebp),%eax
          s++;
 719:	83 c7 01             	add    $0x1,%edi
  write(fd, &c, 1);
 71c:	6a 01                	push   $0x1
 71e:	50                   	push   %eax
 71f:	56                   	push   %esi
 720:	e8 ce fc ff ff       	call   3f3 <write>
        while(*s != 0){
 725:	0f b6 07             	movzbl (%edi),%eax
 728:	83 c4 10             	add    $0x10,%esp
 72b:	84 c0                	test   %al,%al
 72d:	75 e1                	jne    710 <vprintf+0x1e0>
      state = 0;
 72f:	31 ff                	xor    %edi,%edi
 731:	e9 34 fe ff ff       	jmp    56a <vprintf+0x3a>
 736:	8d b4 26 00 00 00 00 	lea    0x0(%esi,%eiz,1),%esi
 73d:	8d 76 00             	lea    0x0(%esi),%esi
        printint(fd, va_arg(ap, int), 16, 0);
 740:	8b 45 d4             	mov    -0x2c(%ebp),%eax
 743:	83 ec 0c             	sub    $0xc,%esp
 746:	b9 10 00 00 00       	mov    $0x10,%ecx
 74b:	6a 00                	push   $0x0
 74d:	8d 78 04             	lea    0x4(%eax),%edi
 750:	e9 eb fe ff ff       	jmp    640 <vprintf+0x110>
 755:	8d 76 00             	lea    0x0(%esi),%esi
        putc(fd, c);
 758:	88 4d e7             	mov    %cl,-0x19(%ebp)
  write(fd, &c, 1);
 75b:	83 ec 04             	sub    $0x4,%esp
 75e:	e9 7d fe ff ff       	jmp    5e0 <vprintf+0xb0>
          s = "(null)";
 763:	bf 6f 09 00 00       	mov    $0x96f,%edi
        while(*s != 0){
 768:	b8 28 00 00 00       	mov    $0x28,%eax
 76d:	eb a1                	jmp    710 <vprintf+0x1e0>
 76f:	90                   	nop

00000770 <fprintf>:
// Print to the given fd. Only understands %d,%x, %p, %s, %c.
void
fprintf(int fd, const char *fmt, ...)
{
 770:	55                   	push   %ebp
 771:	89 e5                	mov    %esp,%ebp
 773:	83 ec 08             	sub    $0x8,%esp
 va_list ap;
 va_start(ap, fmt); 
 vprintf(fd,fmt,ap);
 776:	8b 55 0c             	mov    0xc(%ebp),%edx
 779:	8b 45 08             	mov    0x8(%ebp),%eax
 77c:	8d 4d 10             	lea    0x10(%ebp),%ecx
 77f:	e8 ac fd ff ff       	call   530 <vprintf>
}
 784:	c9                   	leave  
 785:	c3                   	ret    
 786:	8d b4 26 00 00 00 00 	lea    0x0(%esi,%eiz,1),%esi
 78d:	8d 76 00             	lea    0x0(%esi),%esi

00000790 <printf>:
void
printf(const char *fmt, ...)
{
 790:	55                   	push   %ebp
  va_list ap;
  va_start(ap, fmt); 
  vprintf(1,fmt,ap);
 791:	b8 01 00 00 00       	mov    $0x1,%eax
{
 796:	89 e5                	mov    %esp,%ebp
 798:	83 ec 08             	sub    $0x8,%esp
  vprintf(1,fmt,ap);
 79b:	8b 55 08             	mov    0x8(%ebp),%edx
 79e:	8d 4d 0c             	lea    0xc(%ebp),%ecx
 7a1:	e8 8a fd ff ff       	call   530 <vprintf>
}
 7a6:	c9                   	leave  
 7a7:	c3                   	ret    
 7a8:	66 90                	xchg   %ax,%ax
 7aa:	66 90                	xchg   %ax,%ax
 7ac:	66 90                	xchg   %ax,%ax
 7ae:	66 90                	xchg   %ax,%ax

000007b0 <free>:
static Header base;
static Header *freep;

void
free(void *ap)
{
 7b0:	55                   	push   %ebp
  Header *bp, *p;

  bp = (Header*)ap - 1;
  for(p = freep; !(bp > p && bp < p->s.ptr); p = p->s.ptr)
 7b1:	a1 00 0c 00 00       	mov    0xc00,%eax
{
 7b6:	89 e5                	mov    %esp,%ebp
 7b8:	57                   	push   %edi
 7b9:	56                   	push   %esi
 7ba:	53                   	push   %ebx
 7bb:	8b 5d 08             	mov    0x8(%ebp),%ebx
  bp = (Header*)ap - 1;
 7be:	8d 4b f8             	lea    -0x8(%ebx),%ecx
  for(p = freep; !(bp > p && bp < p->s.ptr); p = p->s.ptr)
 7c1:	8d b4 26 00 00 00 00 	lea    0x0(%esi,%eiz,1),%esi
 7c8:	89 c2                	mov    %eax,%edx
 7ca:	8b 00                	mov    (%eax),%eax
 7cc:	39 ca                	cmp    %ecx,%edx
 7ce:	73 30                	jae    800 <free+0x50>
 7d0:	39 c1                	cmp    %eax,%ecx
 7d2:	72 04                	jb     7d8 <free+0x28>
    if(p >= p->s.ptr && (bp > p || bp < p->s.ptr))
 7d4:	39 c2                	cmp    %eax,%edx
 7d6:	72 f0                	jb     7c8 <free+0x18>
      break;
  if(bp + bp->s.size == p->s.ptr){
 7d8:	8b 73 fc             	mov    -0x4(%ebx),%esi
 7db:	8d 3c f1             	lea    (%ecx,%esi,8),%edi
 7de:	39 f8                	cmp    %edi,%eax
 7e0:	74 30                	je     812 <free+0x62>
    bp->s.size += p->s.ptr->s.size;
    bp->s.ptr = p->s.ptr->s.ptr;
 7e2:	89 43 f8             	mov    %eax,-0x8(%ebx)
  } else
    bp->s.ptr = p->s.ptr;
  if(p + p->s.size == bp){
 7e5:	8b 42 04             	mov    0x4(%edx),%eax
 7e8:	8d 34 c2             	lea    (%edx,%eax,8),%esi
 7eb:	39 f1                	cmp    %esi,%ecx
 7ed:	74 3a                	je     829 <free+0x79>
    p->s.size += bp->s.size;
    p->s.ptr = bp->s.ptr;
 7ef:	89 0a                	mov    %ecx,(%edx)
  } else
    p->s.ptr = bp;
  freep = p;
}
 7f1:	5b                   	pop    %ebx
  freep = p;
 7f2:	89 15 00 0c 00 00    	mov    %edx,0xc00
}
 7f8:	5e                   	pop    %esi
 7f9:	5f                   	pop    %edi
 7fa:	5d                   	pop    %ebp
 7fb:	c3                   	ret    
 7fc:	8d 74 26 00          	lea    0x0(%esi,%eiz,1),%esi
    if(p >= p->s.ptr && (bp > p || bp < p->s.ptr))
 800:	39 c2                	cmp    %eax,%edx
 802:	72 c4                	jb     7c8 <free+0x18>
 804:	39 c1                	cmp    %eax,%ecx
 806:	73 c0                	jae    7c8 <free+0x18>
  if(bp + bp->s.size == p->s.ptr){
 808:	8b 73 fc             	mov    -0x4(%ebx),%esi
 80b:	8d 3c f1             	lea    (%ecx,%esi,8),%edi
 80e:	39 f8                	cmp    %edi,%eax
 810:	75 d0                	jne    7e2 <free+0x32>
    bp->s.size += p->s.ptr->s.size;
 812:	03 70 04             	add    0x4(%eax),%esi
 815:	89 73 fc             	mov    %esi,-0x4(%ebx)
    bp->s.ptr = p->s.ptr->s.ptr;
 818:	8b 02                	mov    (%edx),%eax
 81a:	8b 00                	mov    (%eax),%eax
 81c:	89 43 f8             	mov    %eax,-0x8(%ebx)
  if(p + p->s.size == bp){
 81f:	8b 42 04             	mov    0x4(%edx),%eax
 822:	8d 34 c2             	lea    (%edx,%eax,8),%esi
 825:	39 f1                	cmp    %esi,%ecx
 827:	75 c6                	jne    7ef <free+0x3f>
    p->s.size += bp->s.size;
 829:	03 43 fc             	add    -0x4(%ebx),%eax
  freep = p;
 82c:	89 15 00 0c 00 00    	mov    %edx,0xc00
    p->s.size += bp->s.size;
 832:	89 42 04             	mov    %eax,0x4(%edx)
    p->s.ptr = bp->s.ptr;
 835:	8b 4b f8             	mov    -0x8(%ebx),%ecx
 838:	89 0a                	mov    %ecx,(%edx)
}
 83a:	5b                   	pop    %ebx
 83b:	5e                   	pop    %esi
 83c:	5f                   	pop    %edi
 83d:	5d                   	pop    %ebp
 83e:	c3                   	ret    
 83f:	90                   	nop

00000840 <malloc>:
  return freep;
}

void*
malloc(uint nbytes)
{
 840:	55                   	push   %ebp
 841:	89 e5                	mov    %esp,%ebp
 843:	57                   	push   %edi
 844:	56                   	push   %esi
 845:	53                   	push   %ebx
 846:	83 ec 1c             	sub    $0x1c,%esp
  Header *p, *prevp;
  uint nunits;

  nunits = (nbytes + sizeof(Header) - 1)/sizeof(Header) + 1;
 849:	8b 45 08             	mov    0x8(%ebp),%eax
  if((prevp = freep) == 0){
 84c:	8b 3d 00 0c 00 00    	mov    0xc00,%edi
  nunits = (nbytes + sizeof(Header) - 1)/sizeof(Header) + 1;
 852:	8d 70 07             	lea    0x7(%eax),%esi
 855:	c1 ee 03             	shr    $0x3,%esi
 858:	83 c6 01             	add    $0x1,%esi
  if((prevp = freep) == 0){
 85b:	85 ff                	test   %edi,%edi
 85d:	0f 84 9d 00 00 00    	je     900 <malloc+0xc0>
    base.s.ptr = freep = prevp = &base;
    base.s.size = 0;
  }
  for(p = prevp->s.ptr; ; prevp = p, p = p->s.ptr){
 863:	8b 17                	mov    (%edi),%edx
    if(p->s.size >= nunits){
 865:	8b 4a 04             	mov    0x4(%edx),%ecx
 868:	39 f1                	cmp    %esi,%ecx
 86a:	73 6a                	jae    8d6 <malloc+0x96>
 86c:	bb 00 10 00 00       	mov    $0x1000,%ebx
 871:	39 de                	cmp    %ebx,%esi
 873:	0f 43 de             	cmovae %esi,%ebx
  p = sbrk(nu * sizeof(Header));
 876:	8d 04 dd 00 00 00 00 	lea    0x0(,%ebx,8),%eax
 87d:	89 45 e4             	mov    %eax,-0x1c(%ebp)
 880:	eb 17                	jmp    899 <malloc+0x59>
 882:	8d b6 00 00 00 00    	lea    0x0(%esi),%esi
  for(p = prevp->s.ptr; ; prevp = p, p = p->s.ptr){
 888:	8b 02                	mov    (%edx),%eax
    if(p->s.size >= nunits){
 88a:	8b 48 04             	mov    0x4(%eax),%ecx
 88d:	39 f1                	cmp    %esi,%ecx
 88f:	73 4f                	jae    8e0 <malloc+0xa0>
        p->s.size = nunits;
      }
      freep = prevp;
      return (void*)(p + 1);
    }
    if(p == freep)
 891:	8b 3d 00 0c 00 00    	mov    0xc00,%edi
 897:	89 c2                	mov    %eax,%edx
 899:	39 d7                	cmp    %edx,%edi
 89b:	75 eb                	jne    888 <malloc+0x48>
  p = sbrk(nu * sizeof(Header));
 89d:	83 ec 0c             	sub    $0xc,%esp
 8a0:	ff 75 e4             	push   -0x1c(%ebp)
 8a3:	e8 b3 fb ff ff       	call   45b <sbrk>
  if(p == (char*)-1)
 8a8:	83 c4 10             	add    $0x10,%esp
 8ab:	83 f8 ff             	cmp    $0xffffffff,%eax
 8ae:	74 1c                	je     8cc <malloc+0x8c>
  hp->s.size = nu;
 8b0:	89 58 04             	mov    %ebx,0x4(%eax)
  free((void*)(hp + 1));
 8b3:	83 ec 0c             	sub    $0xc,%esp
 8b6:	83 c0 08             	add    $0x8,%eax
 8b9:	50                   	push   %eax
 8ba:	e8 f1 fe ff ff       	call   7b0 <free>
  return freep;
 8bf:	8b 15 00 0c 00 00    	mov    0xc00,%edx
      if((p = morecore(nunits)) == 0)
 8c5:	83 c4 10             	add    $0x10,%esp
 8c8:	85 d2                	test   %edx,%edx
 8ca:	75 bc                	jne    888 <malloc+0x48>
        return 0;
  }
}
 8cc:	8d 65 f4             	lea    -0xc(%ebp),%esp
        return 0;
 8cf:	31 c0                	xor    %eax,%eax
}
 8d1:	5b                   	pop    %ebx
 8d2:	5e                   	pop    %esi
 8d3:	5f                   	pop    %edi
 8d4:	5d                   	pop    %ebp
 8d5:	c3                   	ret    
    if(p->s.size >= nunits){
 8d6:	89 d0                	mov    %edx,%eax
 8d8:	89 fa                	mov    %edi,%edx
 8da:	8d b6 00 00 00 00    	lea    0x0(%esi),%esi
      if(p->s.size == nunits)
 8e0:	39 ce                	cmp    %ecx,%esi
 8e2:	74 4c                	je     930 <malloc+0xf0>
        p->s.size -= nunits;
 8e4:	29 f1                	sub    %esi,%ecx
 8e6:	89 48 04             	mov    %ecx,0x4(%eax)
        p += p->s.size;
 8e9:	8d 04 c8             	lea    (%eax,%ecx,8),%eax
        p->s.size = nunits;
 8ec:	89 70 04             	mov    %esi,0x4(%eax)
      freep = prevp;
 8ef:	89 15 00 0c 00 00    	mov    %edx,0xc00
}
 8f5:	8d 65 f4             	lea    -0xc(%ebp),%esp
      return (void*)(p + 1);
 8f8:	83 c0 08             	add    $0x8,%eax
}
 8fb:	5b                   	pop    %ebx
 8fc:	5e                   	pop    %esi
 8fd:	5f                   	pop    %edi
 8fe:	5d                   	pop    %ebp
 8ff:	c3                   	ret    
    base.s.ptr = freep = prevp = &base;
 900:	c7 05 00 0c 00 00 04 	movl   $0xc04,0xc00
 907:	0c 00 00 
    base.s.size = 0;
 90a:	bf 04 0c 00 00       	mov    $0xc04,%edi
    base.s.ptr = freep = prevp = &base;
 90f:	c7 05 04 0c 00 00 04 	movl   $0xc04,0xc04
 916:	0c 00 00 
  for(p = prevp->s.ptr; ; prevp = p, p = p->s.ptr){
 919:	89 fa                	mov    %edi,%edx
    base.s.size = 0;
 91b:	c7 05 08 0c 00 00 00 	movl   $0x0,0xc08
 922:	00 00 00 
    if(p->s.size >= nunits){
 925:	e9 42 ff ff ff       	jmp    86c <malloc+0x2c>
 92a:	8d b6 00 00 00 00    	lea    0x0(%esi),%esi
        prevp->s.ptr = p->s.ptr;
 930:	8b 08                	mov    (%eax),%ecx
 932:	89 0a                	mov    %ecx,(%edx)
 934:	eb b9                	jmp    8ef <malloc+0xaf>
